ccopy_reg
_reconstructor
p0
(cPepperCompiler.system_class
System
p1
c__builtin__
object
p2
Ntp3
Rp4
(dp5
S'input_seqs'
p6
(lp7
sS'name'
p8
S'small'
p9
sS'lengths'
p10
g0
(cPepperCompiler.utils
ordered_dict
p11
c__builtin__
dict
p12
(dp13
S'A'
p14
I29
sS'C'
p15
I29
sS'B'
p16
I29
sS'D'
p17
I29
sS'Flux2'
p18
I37
sS'Flux0'
p19
I37
sS'Flux1'
p20
I37
sS'C2a'
p21
I44
sS'D1a'
p22
I44
sS'D0a'
p23
I44
stp24
Rp25
(dp26
S'order'
p27
(lp28
g16
ag19
ag23
ag15
ag20
ag22
ag14
ag18
ag21
ag17
asbsS'components'
p29
g0
(g11
g12
(dp30
S'p2'
p31
g0
(cPepperCompiler.component_class
Component
p32
g2
Ntp33
Rp34
(dp35
g6
(lp36
g0
(cPepperCompiler.DNA_classes
SuperSequence
p37
g2
Ntp38
Rp39
(dp40
S'dummy'
p41
I00
sS'wc'
p42
g0
(cPepperCompiler.DNA_classes
ReverseSuperSequence
p43
g2
Ntp44
Rp45
(dp46
g41
I00
sg42
g39
sg8
S'Out*'
p47
sS'seq'
p48
NsS'reversed'
p49
I01
sS'prefix'
p50
S'p2-'
p51
sS'base_seqs'
p52
(lp53
g0
(cPepperCompiler.DNA_classes
ReverseSequence
p54
g2
Ntp55
Rp56
(dp57
g41
I00
sg42
g0
(cPepperCompiler.DNA_classes
Sequence
p58
g2
Ntp59
Rp60
(dp61
g41
I00
sS'const'
p62
S'WC'
p63
sg8
S'cbm'
p64
sg48
Nsg49
I00
sg50
g51
sS'in_strand'
p65
I01
sS'length'
p66
I2
sS'full_name'
p67
S'p2-cbm'
p68
sg42
g56
sbsg8
S'cbm*'
p69
sg48
Nsg49
I01
sg50
g51
sg66
I2
sg67
S'p2-cbm*'
p70
sbag0
(g54
g2
Ntp71
Rp72
(dp73
g41
I00
sg42
g0
(g58
g2
Ntp74
Rp75
(dp76
g41
I00
sg62
S'HHHHHHHHHHHHH'
p77
sg8
S'bm'
p78
sg48
Nsg49
I00
sg50
g51
sg65
I01
sg66
I13
sg67
S'p2-bm'
p79
sg42
g72
sbsg8
S'bm*'
p80
sg48
Nsg49
I01
sg50
g51
sg66
I13
sg67
S'p2-bm*'
p81
sbag0
(g54
g2
Ntp82
Rp83
(dp84
g41
I00
sg42
g0
(g58
g2
Ntp85
Rp86
(dp87
g41
I00
sg62
S'HHHHHHH'
p88
sg8
S'toe-sb'
p89
sg48
Nsg49
I00
sg50
g51
sg65
I01
sg66
I7
sg67
S'p2-toe-sb'
p90
sg42
g83
sbsg8
S'toe-sb*'
p91
sg48
Nsg49
I01
sg50
g51
sg66
I7
sg67
S'p2-toe-sb*'
p92
sbag0
(g54
g2
Ntp93
Rp94
(dp95
g41
I00
sg42
g0
(g58
g2
Ntp96
Rp97
(dp98
g41
I00
sg62
S'CW'
p99
sg8
S'cch'
p100
sg48
Nsg49
I00
sg50
g51
sg65
I01
sg66
I2
sg67
S'p2-cch'
p101
sg42
g94
sbsg8
S'cch*'
p102
sg48
Nsg49
I01
sg50
g51
sg66
I2
sg67
S'p2-cch*'
p103
sbag0
(g54
g2
Ntp104
Rp105
(dp106
g41
I00
sg42
g0
(g58
g2
Ntp107
Rp108
(dp109
g41
I00
sg62
S'CHHHHHHHHHHHH'
p110
sg8
S'ch'
p111
sg48
Nsg49
I00
sg50
g51
sg65
I01
sg66
I13
sg67
S'p2-ch'
p112
sg42
g105
sbsg8
S'ch*'
p113
sg48
Nsg49
I01
sg50
g51
sg66
I13
sg67
S'p2-ch*'
p114
sbasg66
I37
sg67
S'p2-Out*'
p115
sS'seqs'
p116
(lp117
g56
ag72
ag83
ag94
ag105
asbsg8
S'Out'
p118
sg48
Nsg49
I00
sg66
I37
sg52
(lp119
g108
ag97
ag86
ag75
ag60
asg50
g51
sg67
S'p2-Out'
p120
sg116
(lp121
g108
ag97
ag86
ag75
ag60
asbasg8
S'gate_uni_produ'
p122
sS'input_structs'
p123
(lp124
NasS'sup_seqs'
p125
g0
(g11
g12
(dp126
g15
g0
(g37
g2
Ntp127
Rp128
(dp129
g41
I00
sg42
g0
(g43
g2
Ntp130
Rp131
(dp132
g41
I00
sg42
g128
sg8
S'C*'
p133
sg48
Nsg49
I01
sg50
g51
sg52
(lp134
g94
ag105
ag0
(g54
g2
Ntp135
Rp136
(dp137
g41
I00
sg42
g0
(g58
g2
Ntp138
Rp139
(dp140
g41
I00
sg62
S'HHHHHHH'
p141
sg8
S'toe-fc'
p142
sg48
Nsg49
I00
sg50
g51
sg65
I01
sg66
I7
sg67
S'p2-toe-fc'
p143
sg42
g136
sbsg8
S'toe-fc*'
p144
sg48
Nsg49
I01
sg50
g51
sg66
I7
sg67
S'p2-toe-fc*'
p145
sbag0
(g54
g2
Ntp146
Rp147
(dp148
g41
I00
sg42
g0
(g58
g2
Ntp149
Rp150
(dp151
g41
I00
sg62
S'WC'
p152
sg8
S'ccm'
p153
sg48
Nsg49
I00
sg50
g51
sg65
I01
sg66
I2
sg67
S'p2-ccm'
p154
sg42
g147
sbsg8
S'ccm*'
p155
sg48
Nsg49
I01
sg50
g51
sg66
I2
sg67
S'p2-ccm*'
p156
sbag0
(g54
g2
Ntp157
Rp158
(dp159
g41
I00
sg42
g0
(g58
g2
Ntp160
Rp161
(dp162
g41
I00
sg62
S'HHHHHHHHHHHHH'
p163
sg8
S'cm'
p164
sg48
Nsg49
I00
sg50
g51
sg65
I01
sg66
I13
sg67
S'p2-cm'
p165
sg42
g158
sbsg8
S'cm*'
p166
sg48
Nsg49
I01
sg50
g51
sg66
I13
sg67
S'p2-cm*'
p167
sbag0
(g54
g2
Ntp168
Rp169
(dp170
g41
I00
sg42
g0
(g58
g2
Ntp171
Rp172
(dp173
g41
I00
sg62
S'HHHHHHH'
p174
sg8
S'toe-sc'
p175
sg48
Nsg49
I00
sg50
g51
sg65
I01
sg66
I7
sg67
S'p2-toe-sc'
p176
sg42
g169
sbsg8
S'toe-sc*'
p177
sg48
Nsg49
I01
sg50
g51
sg66
I7
sg67
S'p2-toe-sc*'
p178
sbasg66
I44
sg67
S'p2-C*'
p179
sg116
(lp180
g94
ag105
ag136
ag147
ag158
ag169
asbsg8
g15
sg48
Nsg49
I00
sg66
I44
sg52
(lp181
g172
ag161
ag150
ag139
ag108
ag97
asg50
g51
sg67
S'p2-C'
p182
sg116
(lp183
g172
ag161
ag150
ag139
ag108
ag97
asbsg118
g39
stp184
Rp185
(dp186
g27
(lp187
g118
ag15
asbsS'kinetics'
p188
g0
(g11
g12
(dp189
S'Kin2'
p190
g0
(cPepperCompiler.DNA_classes
Kinetics
p191
g2
Ntp192
Rp193
(dp194
S'inputs'
p195
(lp196
g0
(cPepperCompiler.DNA_classes
Structure
p197
g2
Ntp198
Rp199
(dp200
S'opt'
p201
F1.0
sg8
S'Cat_Helper'
p202
sg48
Nsg52
(lp203
g139
ag0
(g58
g2
Ntp204
Rp205
(dp206
g41
I00
sg62
S'CHHHHHHHHHHHH'
p207
sg8
S'dh'
p208
sg48
Nsg49
I00
sg50
g51
sg65
I01
sg66
I13
sg67
S'p2-dh'
p209
sg42
g0
(g54
g2
Ntp210
Rp211
(dp212
g41
I00
sg42
g205
sg8
S'dh*'
p213
sg48
Nsg49
I01
sg50
g51
sg66
I13
sg67
S'p2-dh*'
p214
sbsbag0
(g58
g2
Ntp215
Rp216
(dp217
g41
I00
sg62
S'CW'
p218
sg8
S'cdh'
p219
sg48
Nsg49
I00
sg50
g51
sg65
I01
sg66
I2
sg67
S'p2-cdh'
p220
sg42
g0
(g54
g2
Ntp221
Rp222
(dp223
g41
I00
sg42
g216
sg8
S'cdh*'
p224
sg48
Nsg49
I01
sg50
g51
sg66
I2
sg67
S'p2-cdh*'
p225
sbsbag139
ag108
ag97
asg50
g51
sg67
S'p2-Cat_Helper'
p226
sS'mfe_struct'
p227
NsS'strands'
p228
(lp229
g0
(cPepperCompiler.DNA_classes
Strand
p230
g2
Ntp231
Rp232
(dp233
g41
I00
sg42
g0
(g43
g2
Ntp234
Rp235
(dp236
g41
I00
sg42
g232
sg8
S'cat_helper*'
p237
sg48
Nsg49
I01
sg50
g51
sg52
(lp238
g94
ag105
ag136
ag222
ag211
ag136
asg66
I44
sg67
S'p2-cat_helper*'
p239
sg116
(lp240
g94
ag105
ag136
ag222
ag211
ag136
asbsg8
S'cat_helper'
p241
sg48
Nsg49
I00
sg66
I44
sg52
(lp242
g139
ag205
ag216
ag139
ag108
ag97
asg50
g51
sg67
S'p2-cat_helper'
p243
sg116
(lp244
g139
ag205
ag216
ag139
ag108
ag97
asS'in_structure'
p245
I01
sbasS'struct'
p246
S'............................................'
p247
sbag0
(g197
g2
Ntp248
Rp249
(dp250
g201
F1.0
sg8
S'Trans_int'
p251
sg48
Nsg52
(lp252
g83
ag94
ag105
ag136
ag222
ag211
ag136
ag0
(g54
g2
Ntp253
Rp254
(dp255
g41
I00
sg42
g0
(g58
g2
Ntp256
Rp257
(dp258
g41
I00
sg62
S'WC'
p259
sg8
S'cdm'
p260
sg48
Nsg49
I00
sg50
g51
sg65
I01
sg66
I2
sg67
S'p2-cdm'
p261
sg42
g254
sbsg8
S'cdm*'
p262
sg48
Nsg49
I01
sg50
g51
sg66
I2
sg67
S'p2-cdm*'
p263
sbag257
ag139
ag205
ag216
ag108
ag97
ag86
ag75
ag60
asg50
g51
sg67
S'p2-Trans_int'
p264
sg227
Nsg228
(lp265
g0
(g230
g2
Ntp266
Rp267
(dp268
g41
I00
sg42
g0
(g43
g2
Ntp269
Rp270
(dp271
g41
I00
sg42
g267
sg8
S'trans_base*'
p272
sg48
Nsg49
I01
sg50
g51
sg52
(lp273
g257
ag139
ag205
ag216
ag139
ag108
ag97
ag86
asg66
I53
sg67
S'p2-trans_base*'
p274
sg116
(lp275
g257
ag139
ag205
ag216
ag139
ag108
ag97
ag86
asbsg8
S'trans_base'
p276
sg48
Nsg49
I00
sg66
I53
sg52
(lp277
g83
ag94
ag105
ag136
ag222
ag211
ag136
ag254
asg50
g51
sg67
S'p2-trans_base'
p278
sg116
(lp279
g83
ag94
ag105
ag136
ag222
ag211
ag136
ag254
asg245
I01
sbag0
(g230
g2
Ntp280
Rp281
(dp282
g41
I00
sg42
g0
(g43
g2
Ntp283
Rp284
(dp285
g41
I00
sg42
g281
sg8
S'd*'
p286
sg48
Nsg49
I01
sg50
g51
sg52
(lp287
g222
ag211
ag136
ag254
asg66
I24
sg67
S'p2-d*'
p288
sg116
(lp289
g222
ag211
ag136
ag254
asbsg8
S'd'
p290
sg48
Nsg49
I00
sg66
I24
sg52
(lp291
g257
ag139
ag205
ag216
asg50
g51
sg67
S'p2-d'
p292
sg116
(lp293
g257
ag139
ag205
ag216
asg245
I01
sbag0
(g230
g2
Ntp294
Rp295
(dp296
g41
I00
sg42
g0
(g43
g2
Ntp297
Rp298
(dp299
g41
I00
sg42
g295
sg8
S'out*'
p300
sg48
Nsg49
I01
sg50
g51
sg52
(lp301
g56
ag72
ag83
ag94
ag105
asg66
I37
sg67
S'p2-out*'
p302
sg116
(lp303
g56
ag72
ag83
ag94
ag105
asbsg8
S'out'
p304
sg48
Nsg49
I00
sg66
I37
sg52
(lp305
g108
ag97
ag86
ag75
ag60
asg50
g51
sg67
S'p2-out'
p306
sg116
(lp307
g108
ag97
ag86
ag75
ag60
asg245
I01
sbasg246
S'((((((((((((((((((((((.......((((((((((((((((((((((((+))))))))))))))))))))))))+))))))))))))))))))))))...............'
p308
sbasg8
g190
sS'outputs'
p309
(lp310
g0
(g197
g2
Ntp311
Rp312
(dp313
g201
F1.0
sg8
S'Trans_cat_waste'
p314
sg48
Nsg52
(lp315
g83
ag94
ag105
ag136
ag222
ag211
ag136
ag254
ag139
ag205
ag216
ag139
ag108
ag97
asg50
g51
sg67
S'p2-Trans_cat_waste'
p316
sg227
Nsg228
(lp317
g267
ag232
asg246
S'.......((((((((((((((((((((((((((((((((((((((((((((..+))))))))))))))))))))))))))))))))))))))))))))'
p318
sbag0
(g197
g2
Ntp319
Rp320
(dp321
g201
F1.0
sg8
g17
sg48
Nsg52
(lp322
g257
ag139
ag205
ag216
asg50
g51
sg67
S'p2-D'
p323
sg227
Nsg228
(lp324
g281
asg246
S'........................'
p325
sbag0
(g197
g2
Ntp326
Rp327
(dp328
g201
F1.0
sg8
S'Out'
p329
sg48
Nsg52
(lp330
g108
ag97
ag86
ag75
ag60
asg50
g51
sg67
S'p2-Out'
p331
sg227
Nsg228
(lp332
g295
asg246
S'.....................................'
p333
sbasS'high'
p334
Finf
sg50
g51
sS'low'
p335
I0
sg67
S'p2-Kin2'
p336
sbsS'Kin0'
p337
g0
(g191
g2
Ntp338
Rp339
(dp340
g195
(lp341
g327
ag0
(g197
g2
Ntp342
Rp343
(dp344
g201
F1.0
sg8
S'Trans'
p345
sg48
Nsg52
(lp346
g83
ag94
ag105
ag136
ag222
ag211
ag136
ag254
ag257
ag139
ag205
ag216
ag172
ag161
ag150
ag139
ag108
ag97
asg50
g51
sg67
S'p2-Trans'
p347
sg227
Nsg228
(lp348
g267
ag281
ag0
(g230
g2
Ntp349
Rp350
(dp351
g41
I00
sg42
g0
(g43
g2
Ntp352
Rp353
(dp354
g41
I00
sg42
g350
sg8
S'c*'
p355
sg48
Nsg49
I01
sg50
g51
sg52
(lp356
g94
ag105
ag136
ag147
ag158
ag169
asg66
I44
sg67
S'p2-c*'
p357
sg116
(lp358
g94
ag105
ag136
ag147
ag158
ag169
asbsg8
S'c'
p359
sg48
Nsg49
I00
sg66
I44
sg52
(lp360
g172
ag161
ag150
ag139
ag108
ag97
asg50
g51
sg67
S'p2-c'
p361
sg116
(lp362
g172
ag161
ag150
ag139
ag108
ag97
asg245
I01
sbasg246
S'.......((((((((((((((((((((((((((((((((((((((((((((((+))))))))))))))))))))))))+......................))))))))))))))))))))))'
p363
sbasg8
g337
sg309
(lp364
g249
ag0
(g197
g2
Ntp365
Rp366
(dp367
g201
F1.0
sg8
g15
sg48
Nsg52
(lp368
g172
ag161
ag150
ag139
ag108
ag97
asg50
g51
sg67
S'p2-C'
p369
sg227
Nsg228
(lp370
g350
asg246
S'............................................'
p371
sbasg334
Finf
sg50
g51
sg335
I0
sg67
S'p2-Kin0'
p372
sbsS'Kin1'
p373
g0
(g191
g2
Ntp374
Rp375
(dp376
g195
(lp377
g0
(g197
g2
Ntp378
Rp379
(dp380
g201
F1.0
sg8
S'Helper'
p381
sg48
Nsg52
(lp382
g139
ag205
ag216
ag139
asg50
g51
sg67
S'p2-Helper'
p383
sg227
Nsg228
(lp384
g0
(g230
g2
Ntp385
Rp386
(dp387
g41
I00
sg42
g0
(g43
g2
Ntp388
Rp389
(dp390
g41
I00
sg42
g386
sg8
S'helper*'
p391
sg48
Nsg49
I01
sg50
g51
sg52
(lp392
g136
ag222
ag211
ag136
asg66
I29
sg67
S'p2-helper*'
p393
sg116
(lp394
g136
ag222
ag211
ag136
asbsg8
S'helper'
p395
sg48
Nsg49
I00
sg66
I29
sg52
(lp396
g139
ag205
ag216
ag139
asg50
g51
sg67
S'p2-helper'
p397
sg116
(lp398
g139
ag205
ag216
ag139
asg245
I01
sbasg246
S'.............................'
p399
sbag249
asg8
g373
sg309
(lp400
g0
(g197
g2
Ntp401
Rp402
(dp403
g201
F1.0
sg8
S'Trans_waste'
p404
sg48
Nsg52
(lp405
g83
ag94
ag105
ag136
ag222
ag211
ag136
ag254
ag139
ag205
ag216
ag139
ag108
ag97
ag86
ag75
ag60
asg50
g51
sg67
S'p2-Trans_waste'
p406
sg227
Nsg228
(lp407
g267
ag386
ag295
asg246
S'(((((((((((((((((((((((((((((((((((((((((((((((((((..+)))))))))))))))))))))))))))))+))))))))))))))))))))))...............'
p408
sbag320
asg334
Finf
sg50
g51
sg335
I0
sg67
S'p2-Kin1'
p409
sbstp410
Rp411
(dp412
g27
(lp413
g337
ag373
ag190
asbsg52
g0
(g11
g12
(dp414
g142
g139
sg111
g108
sg164
g161
sg208
g205
sg78
g75
sg89
g86
sg175
g172
sg219
g216
sg64
g60
sg153
g150
sg100
g97
sg260
g257
stp415
Rp416
(dp417
g27
(lp418
g89
ag142
ag175
ag78
ag164
ag111
ag208
ag64
ag153
ag100
ag260
ag219
asbsS'kin_num'
p419
I3
sg50
g51
sS'params'
p420
(lp421
S't'
p422
aS'bm'
p423
ag359
asg116
g0
(g11
g12
(dp424
g142
g139
sg111
g108
sg164
g161
sg208
g205
sg78
g75
sg89
g86
sg15
g128
sg219
g216
sg175
g172
sg153
g150
sg100
g97
sg260
g257
sg64
g60
sg118
g39
stp425
Rp426
(dp427
g27
(lp428
g89
ag142
ag175
ag78
ag164
ag111
ag208
ag64
ag153
ag100
ag260
ag219
ag118
ag15
asbsg228
g0
(g11
g12
(dp429
g241
g232
sg359
g350
sg290
g281
sg395
g386
sg276
g267
sg304
g295
stp430
Rp431
(dp432
g27
(lp433
g304
ag359
ag290
ag395
ag241
ag276
asbsS'structs'
p434
g0
(g11
g12
(dp435
g15
g366
sg17
g320
sg381
g379
sg251
g249
sg404
g402
sg202
g199
sg329
g327
sg345
g343
sg314
g312
stp436
Rp437
(dp438
g27
(lp439
g329
ag15
ag17
ag381
ag202
ag345
ag251
ag404
ag314
asbsS'output_structs'
p440
(lp441
NasS'output_seqs'
p442
(lp443
g128
asbsS'p0'
p444
g0
(g32
g2
Ntp445
Rp446
(dp447
g6
(lp448
g0
(g37
g2
Ntp449
Rp450
(dp451
g41
I00
sg42
g0
(g43
g2
Ntp452
Rp453
(dp454
g41
I00
sg42
g450
sg8
S'Out*'
p455
sg48
Nsg49
I01
sg50
S'p0-'
p456
sg52
(lp457
g0
(g54
g2
Ntp458
Rp459
(dp460
g41
I00
sg42
g0
(g58
g2
Ntp461
Rp462
(dp463
g41
I00
sg62
S'WC'
p464
sg8
S'cbm'
p465
sg48
Nsg49
I00
sg50
g456
sg65
I01
sg66
I2
sg67
S'p0-cbm'
p466
sg42
g459
sbsg8
S'cbm*'
p467
sg48
Nsg49
I01
sg50
g456
sg66
I2
sg67
S'p0-cbm*'
p468
sbag0
(g54
g2
Ntp469
Rp470
(dp471
g41
I00
sg42
g0
(g58
g2
Ntp472
Rp473
(dp474
g41
I00
sg62
S'HHHHHHHHHHHHH'
p475
sg8
S'bm'
p476
sg48
Nsg49
I00
sg50
g456
sg65
I01
sg66
I13
sg67
S'p0-bm'
p477
sg42
g470
sbsg8
S'bm*'
p478
sg48
Nsg49
I01
sg50
g456
sg66
I13
sg67
S'p0-bm*'
p479
sbag0
(g54
g2
Ntp480
Rp481
(dp482
g41
I00
sg42
g0
(g58
g2
Ntp483
Rp484
(dp485
g41
I00
sg62
S'HHHHHHH'
p486
sg8
S'toe-sb'
p487
sg48
Nsg49
I00
sg50
g456
sg65
I01
sg66
I7
sg67
S'p0-toe-sb'
p488
sg42
g481
sbsg8
S'toe-sb*'
p489
sg48
Nsg49
I01
sg50
g456
sg66
I7
sg67
S'p0-toe-sb*'
p490
sbag0
(g54
g2
Ntp491
Rp492
(dp493
g41
I00
sg42
g0
(g58
g2
Ntp494
Rp495
(dp496
g41
I00
sg62
S'CW'
p497
sg8
S'cch'
p498
sg48
Nsg49
I00
sg50
g456
sg65
I01
sg66
I2
sg67
S'p0-cch'
p499
sg42
g492
sbsg8
S'cch*'
p500
sg48
Nsg49
I01
sg50
g456
sg66
I2
sg67
S'p0-cch*'
p501
sbag0
(g54
g2
Ntp502
Rp503
(dp504
g41
I00
sg42
g0
(g58
g2
Ntp505
Rp506
(dp507
g41
I00
sg62
S'CHHHHHHHHHHHH'
p508
sg8
S'ch'
p509
sg48
Nsg49
I00
sg50
g456
sg65
I01
sg66
I13
sg67
S'p0-ch'
p510
sg42
g503
sbsg8
S'ch*'
p511
sg48
Nsg49
I01
sg50
g456
sg66
I13
sg67
S'p0-ch*'
p512
sbasg66
I37
sg67
S'p0-Out*'
p513
sg116
(lp514
g459
ag470
ag481
ag492
ag503
asbsg8
S'Out'
p515
sg48
Nsg49
I00
sg66
I37
sg52
(lp516
g506
ag495
ag484
ag473
ag462
asg50
g456
sg67
S'p0-Out'
p517
sg116
(lp518
g506
ag495
ag484
ag473
ag462
asbasg8
S'gate_uni_produ'
p519
sg123
(lp520
Nasg125
g0
(g11
g12
(dp521
g15
g0
(g37
g2
Ntp522
Rp523
(dp524
g41
I00
sg42
g0
(g43
g2
Ntp525
Rp526
(dp527
g41
I00
sg42
g523
sg8
S'C*'
p528
sg48
Nsg49
I01
sg50
g456
sg52
(lp529
g492
ag503
ag0
(g54
g2
Ntp530
Rp531
(dp532
g41
I00
sg42
g0
(g58
g2
Ntp533
Rp534
(dp535
g41
I00
sg62
S'ACAAAAC'
p536
sg8
S'toe-fc'
p537
sg48
Nsg49
I00
sg50
g456
sg65
I01
sg66
I7
sg67
S'p0-toe-fc'
p538
sg42
g531
sbsg8
S'toe-fc*'
p539
sg48
Nsg49
I01
sg50
g456
sg66
I7
sg67
S'p0-toe-fc*'
p540
sbag0
(g54
g2
Ntp541
Rp542
(dp543
g41
I00
sg42
g0
(g58
g2
Ntp544
Rp545
(dp546
g41
I00
sg62
S'WC'
p547
sg8
S'ccm'
p548
sg48
Nsg49
I00
sg50
g456
sg65
I01
sg66
I2
sg67
S'p0-ccm'
p549
sg42
g542
sbsg8
S'ccm*'
p550
sg48
Nsg49
I01
sg50
g456
sg66
I2
sg67
S'p0-ccm*'
p551
sbag0
(g54
g2
Ntp552
Rp553
(dp554
g41
I00
sg42
g0
(g58
g2
Ntp555
Rp556
(dp557
g41
I00
sg62
S'HHHHHHHHHHHHH'
p558
sg8
S'cm'
p559
sg48
Nsg49
I00
sg50
g456
sg65
I01
sg66
I13
sg67
S'p0-cm'
p560
sg42
g553
sbsg8
S'cm*'
p561
sg48
Nsg49
I01
sg50
g456
sg66
I13
sg67
S'p0-cm*'
p562
sbag0
(g54
g2
Ntp563
Rp564
(dp565
g41
I00
sg42
g0
(g58
g2
Ntp566
Rp567
(dp568
g41
I00
sg62
S'CTACATC'
p569
sg8
S'toe-sc'
p570
sg48
Nsg49
I00
sg50
g456
sg65
I01
sg66
I7
sg67
S'p0-toe-sc'
p571
sg42
g564
sbsg8
S'toe-sc*'
p572
sg48
Nsg49
I01
sg50
g456
sg66
I7
sg67
S'p0-toe-sc*'
p573
sbasg66
I44
sg67
S'p0-C*'
p574
sg116
(lp575
g492
ag503
ag531
ag542
ag553
ag564
asbsg8
g15
sg48
Nsg49
I00
sg66
I44
sg52
(lp576
g567
ag556
ag545
ag534
ag506
ag495
asg50
g456
sg67
S'p0-C'
p577
sg116
(lp578
g567
ag556
ag545
ag534
ag506
ag495
asbsg515
g450
stp579
Rp580
(dp581
g27
(lp582
g515
ag15
asbsg188
g0
(g11
g12
(dp583
S'Kin2'
p584
g0
(g191
g2
Ntp585
Rp586
(dp587
g195
(lp588
g0
(g197
g2
Ntp589
Rp590
(dp591
g201
F1.0
sg8
S'Cat_Helper'
p592
sg48
Nsg52
(lp593
g534
ag0
(g58
g2
Ntp594
Rp595
(dp596
g41
I00
sg62
S'CHHHHHHHHHHHH'
p597
sg8
S'dh'
p598
sg48
Nsg49
I00
sg50
g456
sg65
I01
sg66
I13
sg67
S'p0-dh'
p599
sg42
g0
(g54
g2
Ntp600
Rp601
(dp602
g41
I00
sg42
g595
sg8
S'dh*'
p603
sg48
Nsg49
I01
sg50
g456
sg66
I13
sg67
S'p0-dh*'
p604
sbsbag0
(g58
g2
Ntp605
Rp606
(dp607
g41
I00
sg62
S'CW'
p608
sg8
S'cdh'
p609
sg48
Nsg49
I00
sg50
g456
sg65
I01
sg66
I2
sg67
S'p0-cdh'
p610
sg42
g0
(g54
g2
Ntp611
Rp612
(dp613
g41
I00
sg42
g606
sg8
S'cdh*'
p614
sg48
Nsg49
I01
sg50
g456
sg66
I2
sg67
S'p0-cdh*'
p615
sbsbag534
ag506
ag495
asg50
g456
sg67
S'p0-Cat_Helper'
p616
sg227
Nsg228
(lp617
g0
(g230
g2
Ntp618
Rp619
(dp620
g41
I00
sg42
g0
(g43
g2
Ntp621
Rp622
(dp623
g41
I00
sg42
g619
sg8
S'cat_helper*'
p624
sg48
Nsg49
I01
sg50
g456
sg52
(lp625
g492
ag503
ag531
ag612
ag601
ag531
asg66
I44
sg67
S'p0-cat_helper*'
p626
sg116
(lp627
g492
ag503
ag531
ag612
ag601
ag531
asbsg8
S'cat_helper'
p628
sg48
Nsg49
I00
sg66
I44
sg52
(lp629
g534
ag595
ag606
ag534
ag506
ag495
asg50
g456
sg67
S'p0-cat_helper'
p630
sg116
(lp631
g534
ag595
ag606
ag534
ag506
ag495
asg245
I01
sbasg246
S'............................................'
p632
sbag0
(g197
g2
Ntp633
Rp634
(dp635
g201
F1.0
sg8
S'Trans_int'
p636
sg48
Nsg52
(lp637
g481
ag492
ag503
ag531
ag612
ag601
ag531
ag0
(g54
g2
Ntp638
Rp639
(dp640
g41
I00
sg42
g0
(g58
g2
Ntp641
Rp642
(dp643
g41
I00
sg62
S'WC'
p644
sg8
S'cdm'
p645
sg48
Nsg49
I00
sg50
g456
sg65
I01
sg66
I2
sg67
S'p0-cdm'
p646
sg42
g639
sbsg8
S'cdm*'
p647
sg48
Nsg49
I01
sg50
g456
sg66
I2
sg67
S'p0-cdm*'
p648
sbag642
ag534
ag595
ag606
ag506
ag495
ag484
ag473
ag462
asg50
g456
sg67
S'p0-Trans_int'
p649
sg227
Nsg228
(lp650
g0
(g230
g2
Ntp651
Rp652
(dp653
g41
I00
sg42
g0
(g43
g2
Ntp654
Rp655
(dp656
g41
I00
sg42
g652
sg8
S'trans_base*'
p657
sg48
Nsg49
I01
sg50
g456
sg52
(lp658
g642
ag534
ag595
ag606
ag534
ag506
ag495
ag484
asg66
I53
sg67
S'p0-trans_base*'
p659
sg116
(lp660
g642
ag534
ag595
ag606
ag534
ag506
ag495
ag484
asbsg8
S'trans_base'
p661
sg48
Nsg49
I00
sg66
I53
sg52
(lp662
g481
ag492
ag503
ag531
ag612
ag601
ag531
ag639
asg50
g456
sg67
S'p0-trans_base'
p663
sg116
(lp664
g481
ag492
ag503
ag531
ag612
ag601
ag531
ag639
asg245
I01
sbag0
(g230
g2
Ntp665
Rp666
(dp667
g41
I00
sg42
g0
(g43
g2
Ntp668
Rp669
(dp670
g41
I00
sg42
g666
sg8
S'd*'
p671
sg48
Nsg49
I01
sg50
g456
sg52
(lp672
g612
ag601
ag531
ag639
asg66
I24
sg67
S'p0-d*'
p673
sg116
(lp674
g612
ag601
ag531
ag639
asbsg8
g290
sg48
Nsg49
I00
sg66
I24
sg52
(lp675
g642
ag534
ag595
ag606
asg50
g456
sg67
S'p0-d'
p676
sg116
(lp677
g642
ag534
ag595
ag606
asg245
I01
sbag0
(g230
g2
Ntp678
Rp679
(dp680
g41
I00
sg42
g0
(g43
g2
Ntp681
Rp682
(dp683
g41
I00
sg42
g679
sg8
S'out*'
p684
sg48
Nsg49
I01
sg50
g456
sg52
(lp685
g459
ag470
ag481
ag492
ag503
asg66
I37
sg67
S'p0-out*'
p686
sg116
(lp687
g459
ag470
ag481
ag492
ag503
asbsg8
S'out'
p688
sg48
Nsg49
I00
sg66
I37
sg52
(lp689
g506
ag495
ag484
ag473
ag462
asg50
g456
sg67
S'p0-out'
p690
sg116
(lp691
g506
ag495
ag484
ag473
ag462
asg245
I01
sbasg246
S'((((((((((((((((((((((.......((((((((((((((((((((((((+))))))))))))))))))))))))+))))))))))))))))))))))...............'
p692
sbasg8
g584
sg309
(lp693
g0
(g197
g2
Ntp694
Rp695
(dp696
g201
F1.0
sg8
S'Trans_cat_waste'
p697
sg48
Nsg52
(lp698
g481
ag492
ag503
ag531
ag612
ag601
ag531
ag639
ag534
ag595
ag606
ag534
ag506
ag495
asg50
g456
sg67
S'p0-Trans_cat_waste'
p699
sg227
Nsg228
(lp700
g652
ag619
asg246
S'.......((((((((((((((((((((((((((((((((((((((((((((..+))))))))))))))))))))))))))))))))))))))))))))'
p701
sbag0
(g197
g2
Ntp702
Rp703
(dp704
g201
F1.0
sg8
g17
sg48
Nsg52
(lp705
g642
ag534
ag595
ag606
asg50
g456
sg67
S'p0-D'
p706
sg227
Nsg228
(lp707
g666
asg246
S'........................'
p708
sbag0
(g197
g2
Ntp709
Rp710
(dp711
g201
F1.0
sg8
S'Out'
p712
sg48
Nsg52
(lp713
g506
ag495
ag484
ag473
ag462
asg50
g456
sg67
S'p0-Out'
p714
sg227
Nsg228
(lp715
g679
asg246
S'.....................................'
p716
sbasg334
Finf
sg50
g456
sg335
I0
sg67
S'p0-Kin2'
p717
sbsS'Kin0'
p718
g0
(g191
g2
Ntp719
Rp720
(dp721
g195
(lp722
g710
ag0
(g197
g2
Ntp723
Rp724
(dp725
g201
F1.0
sg8
S'Trans'
p726
sg48
Nsg52
(lp727
g481
ag492
ag503
ag531
ag612
ag601
ag531
ag639
ag642
ag534
ag595
ag606
ag567
ag556
ag545
ag534
ag506
ag495
asg50
g456
sg67
S'p0-Trans'
p728
sg227
Nsg228
(lp729
g652
ag666
ag0
(g230
g2
Ntp730
Rp731
(dp732
g41
I00
sg42
g0
(g43
g2
Ntp733
Rp734
(dp735
g41
I00
sg42
g731
sg8
S'c*'
p736
sg48
Nsg49
I01
sg50
g456
sg52
(lp737
g492
ag503
ag531
ag542
ag553
ag564
asg66
I44
sg67
S'p0-c*'
p738
sg116
(lp739
g492
ag503
ag531
ag542
ag553
ag564
asbsg8
g359
sg48
Nsg49
I00
sg66
I44
sg52
(lp740
g567
ag556
ag545
ag534
ag506
ag495
asg50
g456
sg67
S'p0-c'
p741
sg116
(lp742
g567
ag556
ag545
ag534
ag506
ag495
asg245
I01
sbasg246
S'.......((((((((((((((((((((((((((((((((((((((((((((((+))))))))))))))))))))))))+......................))))))))))))))))))))))'
p743
sbasg8
g718
sg309
(lp744
g634
ag0
(g197
g2
Ntp745
Rp746
(dp747
g201
F1.0
sg8
g15
sg48
Nsg52
(lp748
g567
ag556
ag545
ag534
ag506
ag495
asg50
g456
sg67
S'p0-C'
p749
sg227
Nsg228
(lp750
g731
asg246
S'............................................'
p751
sbasg334
Finf
sg50
g456
sg335
I0
sg67
S'p0-Kin0'
p752
sbsS'Kin1'
p753
g0
(g191
g2
Ntp754
Rp755
(dp756
g195
(lp757
g0
(g197
g2
Ntp758
Rp759
(dp760
g201
F1.0
sg8
S'Helper'
p761
sg48
Nsg52
(lp762
g534
ag595
ag606
ag534
asg50
g456
sg67
S'p0-Helper'
p763
sg227
Nsg228
(lp764
g0
(g230
g2
Ntp765
Rp766
(dp767
g41
I00
sg42
g0
(g43
g2
Ntp768
Rp769
(dp770
g41
I00
sg42
g766
sg8
S'helper*'
p771
sg48
Nsg49
I01
sg50
g456
sg52
(lp772
g531
ag612
ag601
ag531
asg66
I29
sg67
S'p0-helper*'
p773
sg116
(lp774
g531
ag612
ag601
ag531
asbsg8
S'helper'
p775
sg48
Nsg49
I00
sg66
I29
sg52
(lp776
g534
ag595
ag606
ag534
asg50
g456
sg67
S'p0-helper'
p777
sg116
(lp778
g534
ag595
ag606
ag534
asg245
I01
sbasg246
S'.............................'
p779
sbag634
asg8
g753
sg309
(lp780
g0
(g197
g2
Ntp781
Rp782
(dp783
g201
F1.0
sg8
S'Trans_waste'
p784
sg48
Nsg52
(lp785
g481
ag492
ag503
ag531
ag612
ag601
ag531
ag639
ag534
ag595
ag606
ag534
ag506
ag495
ag484
ag473
ag462
asg50
g456
sg67
S'p0-Trans_waste'
p786
sg227
Nsg228
(lp787
g652
ag766
ag679
asg246
S'(((((((((((((((((((((((((((((((((((((((((((((((((((..+)))))))))))))))))))))))))))))+))))))))))))))))))))))...............'
p788
sbag703
asg334
Finf
sg50
g456
sg335
I0
sg67
S'p0-Kin1'
p789
sbstp790
Rp791
(dp792
g27
(lp793
g718
ag753
ag584
asbsg52
g0
(g11
g12
(dp794
g537
g534
sg509
g506
sg559
g556
sg598
g595
sg476
g473
sg487
g484
sg570
g567
sg609
g606
sg465
g462
sg548
g545
sg498
g495
sg645
g642
stp795
Rp796
(dp797
g27
(lp798
g487
ag537
ag570
ag476
ag559
ag509
ag598
ag465
ag548
ag498
ag645
ag609
asbsg419
I3
sg50
g456
sg420
(lp799
g422
aS'bm'
p800
ag359
asg116
g0
(g11
g12
(dp801
g537
g534
sg509
g506
sg559
g556
sg598
g595
sg476
g473
sg487
g484
sg15
g523
sg609
g606
sg570
g567
sg548
g545
sg498
g495
sg645
g642
sg465
g462
sg515
g450
stp802
Rp803
(dp804
g27
(lp805
g487
ag537
ag570
ag476
ag559
ag509
ag598
ag465
ag548
ag498
ag645
ag609
ag515
ag15
asbsg228
g0
(g11
g12
(dp806
g628
g619
sg359
g731
sg290
g666
sg775
g766
sg661
g652
sg688
g679
stp807
Rp808
(dp809
g27
(lp810
g688
ag359
ag290
ag775
ag628
ag661
asbsg434
g0
(g11
g12
(dp811
g15
g746
sg17
g703
sg761
g759
sg636
g634
sg784
g782
sg592
g590
sg712
g710
sg726
g724
sg697
g695
stp812
Rp813
(dp814
g27
(lp815
g712
ag15
ag17
ag761
ag592
ag726
ag636
ag784
ag697
asbsg440
(lp816
Nasg442
(lp817
g523
asbsS'p1'
p818
g0
(g32
g2
Ntp819
Rp820
(dp821
g6
(lp822
g0
(g37
g2
Ntp823
Rp824
(dp825
g41
I00
sg42
g0
(g43
g2
Ntp826
Rp827
(dp828
g41
I00
sg42
g824
sg8
S'Out*'
p829
sg48
Nsg49
I01
sg50
S'p1-'
p830
sg52
(lp831
g0
(g54
g2
Ntp832
Rp833
(dp834
g41
I00
sg42
g0
(g58
g2
Ntp835
Rp836
(dp837
g41
I00
sg62
S'WC'
p838
sg8
S'cbm'
p839
sg48
Nsg49
I00
sg50
g830
sg65
I01
sg66
I2
sg67
S'p1-cbm'
p840
sg42
g833
sbsg8
S'cbm*'
p841
sg48
Nsg49
I01
sg50
g830
sg66
I2
sg67
S'p1-cbm*'
p842
sbag0
(g54
g2
Ntp843
Rp844
(dp845
g41
I00
sg42
g0
(g58
g2
Ntp846
Rp847
(dp848
g41
I00
sg62
S'HHHHHHHHHHHHH'
p849
sg8
S'bm'
p850
sg48
Nsg49
I00
sg50
g830
sg65
I01
sg66
I13
sg67
S'p1-bm'
p851
sg42
g844
sbsg8
S'bm*'
p852
sg48
Nsg49
I01
sg50
g830
sg66
I13
sg67
S'p1-bm*'
p853
sbag0
(g54
g2
Ntp854
Rp855
(dp856
g41
I00
sg42
g0
(g58
g2
Ntp857
Rp858
(dp859
g41
I00
sg62
S'HHHHHHH'
p860
sg8
S'toe-sb'
p861
sg48
Nsg49
I00
sg50
g830
sg65
I01
sg66
I7
sg67
S'p1-toe-sb'
p862
sg42
g855
sbsg8
S'toe-sb*'
p863
sg48
Nsg49
I01
sg50
g830
sg66
I7
sg67
S'p1-toe-sb*'
p864
sbag0
(g54
g2
Ntp865
Rp866
(dp867
g41
I00
sg42
g0
(g58
g2
Ntp868
Rp869
(dp870
g41
I00
sg62
S'CW'
p871
sg8
S'cch'
p872
sg48
Nsg49
I00
sg50
g830
sg65
I01
sg66
I2
sg67
S'p1-cch'
p873
sg42
g866
sbsg8
S'cch*'
p874
sg48
Nsg49
I01
sg50
g830
sg66
I2
sg67
S'p1-cch*'
p875
sbag0
(g54
g2
Ntp876
Rp877
(dp878
g41
I00
sg42
g0
(g58
g2
Ntp879
Rp880
(dp881
g41
I00
sg62
S'CHHHHHHHHHHHH'
p882
sg8
S'ch'
p883
sg48
Nsg49
I00
sg50
g830
sg65
I01
sg66
I13
sg67
S'p1-ch'
p884
sg42
g877
sbsg8
S'ch*'
p885
sg48
Nsg49
I01
sg50
g830
sg66
I13
sg67
S'p1-ch*'
p886
sbasg66
I37
sg67
S'p1-Out*'
p887
sg116
(lp888
g833
ag844
ag855
ag866
ag877
asbsg8
S'Out'
p889
sg48
Nsg49
I00
sg66
I37
sg52
(lp890
g880
ag869
ag858
ag847
ag836
asg50
g830
sg67
S'p1-Out'
p891
sg116
(lp892
g880
ag869
ag858
ag847
ag836
asbasg8
S'gate_uni_produ'
p893
sg123
(lp894
Nasg125
g0
(g11
g12
(dp895
g15
g0
(g37
g2
Ntp896
Rp897
(dp898
g41
I00
sg42
g0
(g43
g2
Ntp899
Rp900
(dp901
g41
I00
sg42
g897
sg8
S'C*'
p902
sg48
Nsg49
I01
sg50
g830
sg52
(lp903
g866
ag877
ag0
(g54
g2
Ntp904
Rp905
(dp906
g41
I00
sg42
g0
(g58
g2
Ntp907
Rp908
(dp909
g41
I00
sg62
S'HHHHHHH'
p910
sg8
S'toe-fc'
p911
sg48
Nsg49
I00
sg50
g830
sg65
I01
sg66
I7
sg67
S'p1-toe-fc'
p912
sg42
g905
sbsg8
S'toe-fc*'
p913
sg48
Nsg49
I01
sg50
g830
sg66
I7
sg67
S'p1-toe-fc*'
p914
sbag0
(g54
g2
Ntp915
Rp916
(dp917
g41
I00
sg42
g0
(g58
g2
Ntp918
Rp919
(dp920
g41
I00
sg62
S'WC'
p921
sg8
S'ccm'
p922
sg48
Nsg49
I00
sg50
g830
sg65
I01
sg66
I2
sg67
S'p1-ccm'
p923
sg42
g916
sbsg8
S'ccm*'
p924
sg48
Nsg49
I01
sg50
g830
sg66
I2
sg67
S'p1-ccm*'
p925
sbag0
(g54
g2
Ntp926
Rp927
(dp928
g41
I00
sg42
g0
(g58
g2
Ntp929
Rp930
(dp931
g41
I00
sg62
S'HHHHHHHHHHHHH'
p932
sg8
S'cm'
p933
sg48
Nsg49
I00
sg50
g830
sg65
I01
sg66
I13
sg67
S'p1-cm'
p934
sg42
g927
sbsg8
S'cm*'
p935
sg48
Nsg49
I01
sg50
g830
sg66
I13
sg67
S'p1-cm*'
p936
sbag0
(g54
g2
Ntp937
Rp938
(dp939
g41
I00
sg42
g0
(g58
g2
Ntp940
Rp941
(dp942
g41
I00
sg62
S'HHHHHHH'
p943
sg8
S'toe-sc'
p944
sg48
Nsg49
I00
sg50
g830
sg65
I01
sg66
I7
sg67
S'p1-toe-sc'
p945
sg42
g938
sbsg8
S'toe-sc*'
p946
sg48
Nsg49
I01
sg50
g830
sg66
I7
sg67
S'p1-toe-sc*'
p947
sbasg66
I44
sg67
S'p1-C*'
p948
sg116
(lp949
g866
ag877
ag905
ag916
ag927
ag938
asbsg8
g15
sg48
Nsg49
I00
sg66
I44
sg52
(lp950
g941
ag930
ag919
ag908
ag880
ag869
asg50
g830
sg67
S'p1-C'
p951
sg116
(lp952
g941
ag930
ag919
ag908
ag880
ag869
asbsg889
g824
stp953
Rp954
(dp955
g27
(lp956
g889
ag15
asbsg188
g0
(g11
g12
(dp957
S'Kin2'
p958
g0
(g191
g2
Ntp959
Rp960
(dp961
g195
(lp962
g0
(g197
g2
Ntp963
Rp964
(dp965
g201
F1.0
sg8
S'Cat_Helper'
p966
sg48
Nsg52
(lp967
g908
ag0
(g58
g2
Ntp968
Rp969
(dp970
g41
I00
sg62
S'CHHHHHHHHHHHH'
p971
sg8
S'dh'
p972
sg48
Nsg49
I00
sg50
g830
sg65
I01
sg66
I13
sg67
S'p1-dh'
p973
sg42
g0
(g54
g2
Ntp974
Rp975
(dp976
g41
I00
sg42
g969
sg8
S'dh*'
p977
sg48
Nsg49
I01
sg50
g830
sg66
I13
sg67
S'p1-dh*'
p978
sbsbag0
(g58
g2
Ntp979
Rp980
(dp981
g41
I00
sg62
S'CW'
p982
sg8
S'cdh'
p983
sg48
Nsg49
I00
sg50
g830
sg65
I01
sg66
I2
sg67
S'p1-cdh'
p984
sg42
g0
(g54
g2
Ntp985
Rp986
(dp987
g41
I00
sg42
g980
sg8
S'cdh*'
p988
sg48
Nsg49
I01
sg50
g830
sg66
I2
sg67
S'p1-cdh*'
p989
sbsbag908
ag880
ag869
asg50
g830
sg67
S'p1-Cat_Helper'
p990
sg227
Nsg228
(lp991
g0
(g230
g2
Ntp992
Rp993
(dp994
g41
I00
sg42
g0
(g43
g2
Ntp995
Rp996
(dp997
g41
I00
sg42
g993
sg8
S'cat_helper*'
p998
sg48
Nsg49
I01
sg50
g830
sg52
(lp999
g866
ag877
ag905
ag986
ag975
ag905
asg66
I44
sg67
S'p1-cat_helper*'
p1000
sg116
(lp1001
g866
ag877
ag905
ag986
ag975
ag905
asbsg8
S'cat_helper'
p1002
sg48
Nsg49
I00
sg66
I44
sg52
(lp1003
g908
ag969
ag980
ag908
ag880
ag869
asg50
g830
sg67
S'p1-cat_helper'
p1004
sg116
(lp1005
g908
ag969
ag980
ag908
ag880
ag869
asg245
I01
sbasg246
S'............................................'
p1006
sbag0
(g197
g2
Ntp1007
Rp1008
(dp1009
g201
F1.0
sg8
S'Trans_int'
p1010
sg48
Nsg52
(lp1011
g855
ag866
ag877
ag905
ag986
ag975
ag905
ag0
(g54
g2
Ntp1012
Rp1013
(dp1014
g41
I00
sg42
g0
(g58
g2
Ntp1015
Rp1016
(dp1017
g41
I00
sg62
S'WC'
p1018
sg8
S'cdm'
p1019
sg48
Nsg49
I00
sg50
g830
sg65
I01
sg66
I2
sg67
S'p1-cdm'
p1020
sg42
g1013
sbsg8
S'cdm*'
p1021
sg48
Nsg49
I01
sg50
g830
sg66
I2
sg67
S'p1-cdm*'
p1022
sbag1016
ag908
ag969
ag980
ag880
ag869
ag858
ag847
ag836
asg50
g830
sg67
S'p1-Trans_int'
p1023
sg227
Nsg228
(lp1024
g0
(g230
g2
Ntp1025
Rp1026
(dp1027
g41
I00
sg42
g0
(g43
g2
Ntp1028
Rp1029
(dp1030
g41
I00
sg42
g1026
sg8
S'trans_base*'
p1031
sg48
Nsg49
I01
sg50
g830
sg52
(lp1032
g1016
ag908
ag969
ag980
ag908
ag880
ag869
ag858
asg66
I53
sg67
S'p1-trans_base*'
p1033
sg116
(lp1034
g1016
ag908
ag969
ag980
ag908
ag880
ag869
ag858
asbsg8
S'trans_base'
p1035
sg48
Nsg49
I00
sg66
I53
sg52
(lp1036
g855
ag866
ag877
ag905
ag986
ag975
ag905
ag1013
asg50
g830
sg67
S'p1-trans_base'
p1037
sg116
(lp1038
g855
ag866
ag877
ag905
ag986
ag975
ag905
ag1013
asg245
I01
sbag0
(g230
g2
Ntp1039
Rp1040
(dp1041
g41
I00
sg42
g0
(g43
g2
Ntp1042
Rp1043
(dp1044
g41
I00
sg42
g1040
sg8
S'd*'
p1045
sg48
Nsg49
I01
sg50
g830
sg52
(lp1046
g986
ag975
ag905
ag1013
asg66
I24
sg67
S'p1-d*'
p1047
sg116
(lp1048
g986
ag975
ag905
ag1013
asbsg8
g290
sg48
Nsg49
I00
sg66
I24
sg52
(lp1049
g1016
ag908
ag969
ag980
asg50
g830
sg67
S'p1-d'
p1050
sg116
(lp1051
g1016
ag908
ag969
ag980
asg245
I01
sbag0
(g230
g2
Ntp1052
Rp1053
(dp1054
g41
I00
sg42
g0
(g43
g2
Ntp1055
Rp1056
(dp1057
g41
I00
sg42
g1053
sg8
S'out*'
p1058
sg48
Nsg49
I01
sg50
g830
sg52
(lp1059
g833
ag844
ag855
ag866
ag877
asg66
I37
sg67
S'p1-out*'
p1060
sg116
(lp1061
g833
ag844
ag855
ag866
ag877
asbsg8
S'out'
p1062
sg48
Nsg49
I00
sg66
I37
sg52
(lp1063
g880
ag869
ag858
ag847
ag836
asg50
g830
sg67
S'p1-out'
p1064
sg116
(lp1065
g880
ag869
ag858
ag847
ag836
asg245
I01
sbasg246
S'((((((((((((((((((((((.......((((((((((((((((((((((((+))))))))))))))))))))))))+))))))))))))))))))))))...............'
p1066
sbasg8
g958
sg309
(lp1067
g0
(g197
g2
Ntp1068
Rp1069
(dp1070
g201
F1.0
sg8
S'Trans_cat_waste'
p1071
sg48
Nsg52
(lp1072
g855
ag866
ag877
ag905
ag986
ag975
ag905
ag1013
ag908
ag969
ag980
ag908
ag880
ag869
asg50
g830
sg67
S'p1-Trans_cat_waste'
p1073
sg227
Nsg228
(lp1074
g1026
ag993
asg246
S'.......((((((((((((((((((((((((((((((((((((((((((((..+))))))))))))))))))))))))))))))))))))))))))))'
p1075
sbag0
(g197
g2
Ntp1076
Rp1077
(dp1078
g201
F1.0
sg8
g17
sg48
Nsg52
(lp1079
g1016
ag908
ag969
ag980
asg50
g830
sg67
S'p1-D'
p1080
sg227
Nsg228
(lp1081
g1040
asg246
S'........................'
p1082
sbag0
(g197
g2
Ntp1083
Rp1084
(dp1085
g201
F1.0
sg8
S'Out'
p1086
sg48
Nsg52
(lp1087
g880
ag869
ag858
ag847
ag836
asg50
g830
sg67
S'p1-Out'
p1088
sg227
Nsg228
(lp1089
g1053
asg246
S'.....................................'
p1090
sbasg334
Finf
sg50
g830
sg335
I0
sg67
S'p1-Kin2'
p1091
sbsS'Kin0'
p1092
g0
(g191
g2
Ntp1093
Rp1094
(dp1095
g195
(lp1096
g1084
ag0
(g197
g2
Ntp1097
Rp1098
(dp1099
g201
F1.0
sg8
S'Trans'
p1100
sg48
Nsg52
(lp1101
g855
ag866
ag877
ag905
ag986
ag975
ag905
ag1013
ag1016
ag908
ag969
ag980
ag941
ag930
ag919
ag908
ag880
ag869
asg50
g830
sg67
S'p1-Trans'
p1102
sg227
Nsg228
(lp1103
g1026
ag1040
ag0
(g230
g2
Ntp1104
Rp1105
(dp1106
g41
I00
sg42
g0
(g43
g2
Ntp1107
Rp1108
(dp1109
g41
I00
sg42
g1105
sg8
S'c*'
p1110
sg48
Nsg49
I01
sg50
g830
sg52
(lp1111
g866
ag877
ag905
ag916
ag927
ag938
asg66
I44
sg67
S'p1-c*'
p1112
sg116
(lp1113
g866
ag877
ag905
ag916
ag927
ag938
asbsg8
g359
sg48
Nsg49
I00
sg66
I44
sg52
(lp1114
g941
ag930
ag919
ag908
ag880
ag869
asg50
g830
sg67
S'p1-c'
p1115
sg116
(lp1116
g941
ag930
ag919
ag908
ag880
ag869
asg245
I01
sbasg246
S'.......((((((((((((((((((((((((((((((((((((((((((((((+))))))))))))))))))))))))+......................))))))))))))))))))))))'
p1117
sbasg8
g1092
sg309
(lp1118
g1008
ag0
(g197
g2
Ntp1119
Rp1120
(dp1121
g201
F1.0
sg8
g15
sg48
Nsg52
(lp1122
g941
ag930
ag919
ag908
ag880
ag869
asg50
g830
sg67
S'p1-C'
p1123
sg227
Nsg228
(lp1124
g1105
asg246
S'............................................'
p1125
sbasg334
Finf
sg50
g830
sg335
I0
sg67
S'p1-Kin0'
p1126
sbsS'Kin1'
p1127
g0
(g191
g2
Ntp1128
Rp1129
(dp1130
g195
(lp1131
g0
(g197
g2
Ntp1132
Rp1133
(dp1134
g201
F1.0
sg8
S'Helper'
p1135
sg48
Nsg52
(lp1136
g908
ag969
ag980
ag908
asg50
g830
sg67
S'p1-Helper'
p1137
sg227
Nsg228
(lp1138
g0
(g230
g2
Ntp1139
Rp1140
(dp1141
g41
I00
sg42
g0
(g43
g2
Ntp1142
Rp1143
(dp1144
g41
I00
sg42
g1140
sg8
S'helper*'
p1145
sg48
Nsg49
I01
sg50
g830
sg52
(lp1146
g905
ag986
ag975
ag905
asg66
I29
sg67
S'p1-helper*'
p1147
sg116
(lp1148
g905
ag986
ag975
ag905
asbsg8
S'helper'
p1149
sg48
Nsg49
I00
sg66
I29
sg52
(lp1150
g908
ag969
ag980
ag908
asg50
g830
sg67
S'p1-helper'
p1151
sg116
(lp1152
g908
ag969
ag980
ag908
asg245
I01
sbasg246
S'.............................'
p1153
sbag1008
asg8
g1127
sg309
(lp1154
g0
(g197
g2
Ntp1155
Rp1156
(dp1157
g201
F1.0
sg8
S'Trans_waste'
p1158
sg48
Nsg52
(lp1159
g855
ag866
ag877
ag905
ag986
ag975
ag905
ag1013
ag908
ag969
ag980
ag908
ag880
ag869
ag858
ag847
ag836
asg50
g830
sg67
S'p1-Trans_waste'
p1160
sg227
Nsg228
(lp1161
g1026
ag1140
ag1053
asg246
S'(((((((((((((((((((((((((((((((((((((((((((((((((((..+)))))))))))))))))))))))))))))+))))))))))))))))))))))...............'
p1162
sbag1077
asg334
Finf
sg50
g830
sg335
I0
sg67
S'p1-Kin1'
p1163
sbstp1164
Rp1165
(dp1166
g27
(lp1167
g1092
ag1127
ag958
asbsg52
g0
(g11
g12
(dp1168
g911
g908
sg883
g880
sg933
g930
sg972
g969
sg850
g847
sg861
g858
sg944
g941
sg983
g980
sg839
g836
sg922
g919
sg872
g869
sg1019
g1016
stp1169
Rp1170
(dp1171
g27
(lp1172
g861
ag911
ag944
ag850
ag933
ag883
ag972
ag839
ag922
ag872
ag1019
ag983
asbsg419
I3
sg50
g830
sg420
(lp1173
g422
aS'bm'
p1174
ag359
asg116
g0
(g11
g12
(dp1175
g911
g908
sg883
g880
sg933
g930
sg972
g969
sg850
g847
sg861
g858
sg15
g897
sg983
g980
sg944
g941
sg922
g919
sg872
g869
sg1019
g1016
sg839
g836
sg889
g824
stp1176
Rp1177
(dp1178
g27
(lp1179
g861
ag911
ag944
ag850
ag933
ag883
ag972
ag839
ag922
ag872
ag1019
ag983
ag889
ag15
asbsg228
g0
(g11
g12
(dp1180
g1002
g993
sg359
g1105
sg290
g1040
sg1149
g1140
sg1035
g1026
sg1062
g1053
stp1181
Rp1182
(dp1183
g27
(lp1184
g1062
ag359
ag290
ag1149
ag1002
ag1035
asbsg434
g0
(g11
g12
(dp1185
g15
g1120
sg17
g1077
sg1135
g1133
sg1010
g1008
sg1158
g1156
sg966
g964
sg1086
g1084
sg1100
g1098
sg1071
g1069
stp1186
Rp1187
(dp1188
g27
(lp1189
g1086
ag15
ag17
ag1135
ag966
ag1100
ag1010
ag1158
ag1071
asbsg440
(lp1190
Nasg442
(lp1191
g897
asbsS'r0'
p1192
g0
(g32
g2
Ntp1193
Rp1194
(dp1195
g6
(lp1196
g0
(g37
g2
Ntp1197
Rp1198
(dp1199
g41
I00
sg42
g0
(g43
g2
Ntp1200
Rp1201
(dp1202
g41
I00
sg42
g1198
sg8
S'B*'
p1203
sg48
Nsg49
I01
sg50
S'r0-'
p1204
sg52
(lp1205
g0
(g54
g2
Ntp1206
Rp1207
(dp1208
g41
I00
sg42
g0
(g58
g2
Ntp1209
Rp1210
(dp1211
g41
I00
sg62
S'TCCAATT'
p1212
sg8
S'toe-fb'
p1213
sg48
Nsg49
I00
sg50
g1204
sg65
I01
sg66
I7
sg67
S'r0-toe-fb'
p1214
sg42
g1207
sbsg8
S'toe-fb*'
p1215
sg48
Nsg49
I01
sg50
g1204
sg66
I7
sg67
S'r0-toe-fb*'
p1216
sbag0
(g54
g2
Ntp1217
Rp1218
(dp1219
g41
I00
sg42
g0
(g58
g2
Ntp1220
Rp1221
(dp1222
g41
I00
sg62
S'WC'
p1223
sg8
S'cbm'
p1224
sg48
Nsg49
I00
sg50
g1204
sg65
I01
sg66
I2
sg67
S'r0-cbm'
p1225
sg42
g1218
sbsg8
S'cbm*'
p1226
sg48
Nsg49
I01
sg50
g1204
sg66
I2
sg67
S'r0-cbm*'
p1227
sbag0
(g54
g2
Ntp1228
Rp1229
(dp1230
g41
I00
sg42
g0
(g58
g2
Ntp1231
Rp1232
(dp1233
g41
I00
sg62
S'HHHHHHHHHHHHH'
p1234
sg8
S'bm'
p1235
sg48
Nsg49
I00
sg50
g1204
sg65
I01
sg66
I13
sg67
S'r0-bm'
p1236
sg42
g1229
sbsg8
S'bm*'
p1237
sg48
Nsg49
I01
sg50
g1204
sg66
I13
sg67
S'r0-bm*'
p1238
sbag0
(g54
g2
Ntp1239
Rp1240
(dp1241
g41
I00
sg42
g0
(g58
g2
Ntp1242
Rp1243
(dp1244
g41
I00
sg62
S'ACTCTTT'
p1245
sg8
S'toe-sb'
p1246
sg48
Nsg49
I00
sg50
g1204
sg65
I01
sg66
I7
sg67
S'r0-toe-sb'
p1247
sg42
g1240
sbsg8
S'toe-sb*'
p1248
sg48
Nsg49
I01
sg50
g1204
sg66
I7
sg67
S'r0-toe-sb*'
p1249
sbasg66
I29
sg67
S'r0-B*'
p1250
sg116
(lp1251
g1207
ag1218
ag1229
ag1240
asbsg8
g16
sg48
Nsg49
I00
sg66
I29
sg52
(lp1252
g1243
ag1232
ag1221
ag1210
asg50
g1204
sg67
S'r0-B'
p1253
sg116
(lp1254
g1243
ag1232
ag1221
ag1210
asbasg8
S'gate_uni_react'
p1255
sg123
(lp1256
Nasg125
g0
(g11
g12
(dp1257
g16
g1198
sS'Out'
p1258
g0
(g37
g2
Ntp1259
Rp1260
(dp1261
g41
I00
sg42
g0
(g43
g2
Ntp1262
Rp1263
(dp1264
g41
I00
sg42
g1260
sg8
S'Out*'
p1265
sg48
Nsg49
I01
sg50
g1204
sg52
(lp1266
g1218
ag1229
ag1240
ag0
(g54
g2
Ntp1267
Rp1268
(dp1269
g41
I00
sg42
g0
(g58
g2
Ntp1270
Rp1271
(dp1272
g41
I00
sg62
S'CW'
p1273
sg8
S'cch'
p1274
sg48
Nsg49
I00
sg50
g1204
sg65
I01
sg66
I2
sg67
S'r0-cch'
p1275
sg42
g1268
sbsg8
S'cch*'
p1276
sg48
Nsg49
I01
sg50
g1204
sg66
I2
sg67
S'r0-cch*'
p1277
sbag0
(g54
g2
Ntp1278
Rp1279
(dp1280
g41
I00
sg42
g0
(g58
g2
Ntp1281
Rp1282
(dp1283
g41
I00
sg62
S'CHHHHHHHHHHHH'
p1284
sg8
S'ch'
p1285
sg48
Nsg49
I00
sg50
g1204
sg65
I01
sg66
I13
sg67
S'r0-ch'
p1286
sg42
g1279
sbsg8
S'ch*'
p1287
sg48
Nsg49
I01
sg50
g1204
sg66
I13
sg67
S'r0-ch*'
p1288
sbasg66
I37
sg67
S'r0-Out*'
p1289
sg116
(lp1290
g1218
ag1229
ag1240
ag1268
ag1279
asbsg8
g1258
sg48
Nsg49
I00
sg66
I37
sg52
(lp1291
g1282
ag1271
ag1243
ag1232
ag1221
asg50
g1204
sg67
S'r0-Out'
p1292
sg116
(lp1293
g1282
ag1271
ag1243
ag1232
ag1221
asbstp1294
Rp1295
(dp1296
g27
(lp1297
g16
ag1258
asbsg188
g0
(g11
g12
(dp1298
S'Kin0'
p1299
g0
(g191
g2
Ntp1300
Rp1301
(dp1302
g195
(lp1303
g0
(g197
g2
Ntp1304
Rp1305
(dp1306
g201
F1.0
sg8
g16
sg48
Nsg52
(lp1307
g1243
ag1232
ag1221
ag1210
asg50
g1204
sg67
S'r0-B'
p1308
sg227
Nsg228
(lp1309
g0
(g230
g2
Ntp1310
Rp1311
(dp1312
g41
I00
sg42
g0
(g43
g2
Ntp1313
Rp1314
(dp1315
g41
I00
sg42
g1311
sg8
S'b*'
p1316
sg48
Nsg49
I01
sg50
g1204
sg52
(lp1317
g1207
ag1218
ag1229
ag1240
asg66
I29
sg67
S'r0-b*'
p1318
sg116
(lp1319
g1207
ag1218
ag1229
ag1240
asbsg8
S'b'
p1320
sg48
Nsg49
I00
sg66
I29
sg52
(lp1321
g1243
ag1232
ag1221
ag1210
asg50
g1204
sg67
S'r0-b'
p1322
sg116
(lp1323
g1243
ag1232
ag1221
ag1210
asg245
I01
sbasg246
S'.............................'
p1324
sbag0
(g197
g2
Ntp1325
Rp1326
(dp1327
g201
F1.0
sg8
S'Gate'
p1328
sg48
Nsg52
(lp1329
g1207
ag1218
ag1229
ag1240
ag1268
ag1282
ag1271
ag1243
ag1232
ag1221
asg50
g1204
sg67
S'r0-Gate'
p1330
sg227
Nsg228
(lp1331
g0
(g230
g2
Ntp1332
Rp1333
(dp1334
g41
I00
sg42
g0
(g43
g2
Ntp1335
Rp1336
(dp1337
g41
I00
sg42
g1333
sg8
S'gate_base*'
p1338
sg48
Nsg49
I01
sg50
g1204
sg52
(lp1339
g1271
ag1243
ag1232
ag1221
ag1210
asg66
I31
sg67
S'r0-gate_base*'
p1340
sg116
(lp1341
g1271
ag1243
ag1232
ag1221
ag1210
asbsg8
S'gate_base'
p1342
sg48
Nsg49
I00
sg66
I31
sg52
(lp1343
g1207
ag1218
ag1229
ag1240
ag1268
asg50
g1204
sg67
S'r0-gate_base'
p1344
sg116
(lp1345
g1207
ag1218
ag1229
ag1240
ag1268
asg245
I01
sbag0
(g230
g2
Ntp1346
Rp1347
(dp1348
g41
I00
sg42
g0
(g43
g2
Ntp1349
Rp1350
(dp1351
g41
I00
sg42
g1347
sg8
S'out*'
p1352
sg48
Nsg49
I01
sg50
g1204
sg52
(lp1353
g1218
ag1229
ag1240
ag1268
ag1279
asg66
I37
sg67
S'r0-out*'
p1354
sg116
(lp1355
g1218
ag1229
ag1240
ag1268
ag1279
asbsg8
S'out'
p1356
sg48
Nsg49
I00
sg66
I37
sg52
(lp1357
g1282
ag1271
ag1243
ag1232
ag1221
asg50
g1204
sg67
S'r0-out'
p1358
sg116
(lp1359
g1282
ag1271
ag1243
ag1232
ag1221
asg245
I01
sbasg246
S'.......((((((((((((((((((((((((+.............))))))))))))))))))))))))'
p1360
sbasg8
g1299
sg309
(lp1361
g0
(g197
g2
Ntp1362
Rp1363
(dp1364
g201
F1.0
sg8
S'Gate_waste'
p1365
sg48
Nsg52
(lp1366
g1207
ag1218
ag1229
ag1240
ag1268
ag1243
ag1232
ag1221
ag1210
asg50
g1204
sg67
S'r0-Gate_waste'
p1367
sg227
Nsg228
(lp1368
g1333
ag1311
asg246
S'(((((((((((((((((((((((((((((..+)))))))))))))))))))))))))))))'
p1369
sbasg334
Finf
sg50
g1204
sg335
I0
sg67
S'r0-Kin0'
p1370
sbstp1371
Rp1372
(dp1373
g27
(lp1374
g1299
asbsg52
g0
(g11
g12
(dp1375
g1285
g1282
sg1274
g1271
sg1213
g1210
sg1235
g1232
sg1246
g1243
sg1224
g1221
stp1376
Rp1377
(dp1378
g27
(lp1379
g1213
ag1246
ag1235
ag1285
ag1224
ag1274
asbsg419
I1
sg50
g1204
sg420
(lp1380
g422
aS'bm'
p1381
ag359
asg116
g0
(g11
g12
(dp1382
g1285
g1282
sg1235
g1232
sg1246
g1243
sg1224
g1221
sg1213
g1210
sg1274
g1271
sg16
g1198
sg1258
g1260
stp1383
Rp1384
(dp1385
g27
(lp1386
g1213
ag1246
ag1235
ag1285
ag1224
ag1274
ag16
ag1258
asbsg228
g0
(g11
g12
(dp1387
g1320
g1311
sg1342
g1333
sg1356
g1347
stp1388
Rp1389
(dp1390
g27
(lp1391
g1320
ag1342
ag1356
asbsg434
g0
(g11
g12
(dp1392
g1328
g1326
sg16
g1305
sg1365
g1363
sS'Out'
p1393
g0
(g197
g2
Ntp1394
Rp1395
(dp1396
g201
F1.0
sg8
g1393
sg48
Nsg52
(lp1397
g1282
ag1271
ag1243
ag1232
ag1221
asg50
g1204
sg67
S'r0-Out'
p1398
sg227
Nsg228
(lp1399
g1347
asg246
S'.....................................'
p1400
sbstp1401
Rp1402
(dp1403
g27
(lp1404
g16
ag1393
ag1328
ag1365
asbsg440
(lp1405
Nasg442
(lp1406
g1260
asbsS'r1'
p1407
g0
(g32
g2
Ntp1408
Rp1409
(dp1410
g6
(lp1411
g0
(g37
g2
Ntp1412
Rp1413
(dp1414
g41
I00
sg42
g0
(g43
g2
Ntp1415
Rp1416
(dp1417
g41
I00
sg42
g1413
sg8
S'B*'
p1418
sg48
Nsg49
I01
sg50
S'r1-'
p1419
sg52
(lp1420
g0
(g54
g2
Ntp1421
Rp1422
(dp1423
g41
I00
sg42
g0
(g58
g2
Ntp1424
Rp1425
(dp1426
g41
I00
sg62
S'CATTCTT'
p1427
sg8
S'toe-fb'
p1428
sg48
Nsg49
I00
sg50
g1419
sg65
I01
sg66
I7
sg67
S'r1-toe-fb'
p1429
sg42
g1422
sbsg8
S'toe-fb*'
p1430
sg48
Nsg49
I01
sg50
g1419
sg66
I7
sg67
S'r1-toe-fb*'
p1431
sbag0
(g54
g2
Ntp1432
Rp1433
(dp1434
g41
I00
sg42
g0
(g58
g2
Ntp1435
Rp1436
(dp1437
g41
I00
sg62
S'WC'
p1438
sg8
S'cbm'
p1439
sg48
Nsg49
I00
sg50
g1419
sg65
I01
sg66
I2
sg67
S'r1-cbm'
p1440
sg42
g1433
sbsg8
S'cbm*'
p1441
sg48
Nsg49
I01
sg50
g1419
sg66
I2
sg67
S'r1-cbm*'
p1442
sbag0
(g54
g2
Ntp1443
Rp1444
(dp1445
g41
I00
sg42
g0
(g58
g2
Ntp1446
Rp1447
(dp1448
g41
I00
sg62
S'HHHHHHHHHHHHH'
p1449
sg8
S'bm'
p1450
sg48
Nsg49
I00
sg50
g1419
sg65
I01
sg66
I13
sg67
S'r1-bm'
p1451
sg42
g1444
sbsg8
S'bm*'
p1452
sg48
Nsg49
I01
sg50
g1419
sg66
I13
sg67
S'r1-bm*'
p1453
sbag0
(g54
g2
Ntp1454
Rp1455
(dp1456
g41
I00
sg42
g0
(g58
g2
Ntp1457
Rp1458
(dp1459
g41
I00
sg62
S'TCAACTT'
p1460
sg8
S'toe-sb'
p1461
sg48
Nsg49
I00
sg50
g1419
sg65
I01
sg66
I7
sg67
S'r1-toe-sb'
p1462
sg42
g1455
sbsg8
S'toe-sb*'
p1463
sg48
Nsg49
I01
sg50
g1419
sg66
I7
sg67
S'r1-toe-sb*'
p1464
sbasg66
I29
sg67
S'r1-B*'
p1465
sg116
(lp1466
g1422
ag1433
ag1444
ag1455
asbsg8
g16
sg48
Nsg49
I00
sg66
I29
sg52
(lp1467
g1458
ag1447
ag1436
ag1425
asg50
g1419
sg67
S'r1-B'
p1468
sg116
(lp1469
g1458
ag1447
ag1436
ag1425
asbasg8
S'gate_uni_react'
p1470
sg123
(lp1471
Nasg125
g0
(g11
g12
(dp1472
g16
g1413
sS'Out'
p1473
g0
(g37
g2
Ntp1474
Rp1475
(dp1476
g41
I00
sg42
g0
(g43
g2
Ntp1477
Rp1478
(dp1479
g41
I00
sg42
g1475
sg8
S'Out*'
p1480
sg48
Nsg49
I01
sg50
g1419
sg52
(lp1481
g1433
ag1444
ag1455
ag0
(g54
g2
Ntp1482
Rp1483
(dp1484
g41
I00
sg42
g0
(g58
g2
Ntp1485
Rp1486
(dp1487
g41
I00
sg62
S'CW'
p1488
sg8
S'cch'
p1489
sg48
Nsg49
I00
sg50
g1419
sg65
I01
sg66
I2
sg67
S'r1-cch'
p1490
sg42
g1483
sbsg8
S'cch*'
p1491
sg48
Nsg49
I01
sg50
g1419
sg66
I2
sg67
S'r1-cch*'
p1492
sbag0
(g54
g2
Ntp1493
Rp1494
(dp1495
g41
I00
sg42
g0
(g58
g2
Ntp1496
Rp1497
(dp1498
g41
I00
sg62
S'CHHHHHHHHHHHH'
p1499
sg8
S'ch'
p1500
sg48
Nsg49
I00
sg50
g1419
sg65
I01
sg66
I13
sg67
S'r1-ch'
p1501
sg42
g1494
sbsg8
S'ch*'
p1502
sg48
Nsg49
I01
sg50
g1419
sg66
I13
sg67
S'r1-ch*'
p1503
sbasg66
I37
sg67
S'r1-Out*'
p1504
sg116
(lp1505
g1433
ag1444
ag1455
ag1483
ag1494
asbsg8
g1473
sg48
Nsg49
I00
sg66
I37
sg52
(lp1506
g1497
ag1486
ag1458
ag1447
ag1436
asg50
g1419
sg67
S'r1-Out'
p1507
sg116
(lp1508
g1497
ag1486
ag1458
ag1447
ag1436
asbstp1509
Rp1510
(dp1511
g27
(lp1512
g16
ag1473
asbsg188
g0
(g11
g12
(dp1513
S'Kin0'
p1514
g0
(g191
g2
Ntp1515
Rp1516
(dp1517
g195
(lp1518
g0
(g197
g2
Ntp1519
Rp1520
(dp1521
g201
F1.0
sg8
g16
sg48
Nsg52
(lp1522
g1458
ag1447
ag1436
ag1425
asg50
g1419
sg67
S'r1-B'
p1523
sg227
Nsg228
(lp1524
g0
(g230
g2
Ntp1525
Rp1526
(dp1527
g41
I00
sg42
g0
(g43
g2
Ntp1528
Rp1529
(dp1530
g41
I00
sg42
g1526
sg8
S'b*'
p1531
sg48
Nsg49
I01
sg50
g1419
sg52
(lp1532
g1422
ag1433
ag1444
ag1455
asg66
I29
sg67
S'r1-b*'
p1533
sg116
(lp1534
g1422
ag1433
ag1444
ag1455
asbsg8
g1320
sg48
Nsg49
I00
sg66
I29
sg52
(lp1535
g1458
ag1447
ag1436
ag1425
asg50
g1419
sg67
S'r1-b'
p1536
sg116
(lp1537
g1458
ag1447
ag1436
ag1425
asg245
I01
sbasg246
S'.............................'
p1538
sbag0
(g197
g2
Ntp1539
Rp1540
(dp1541
g201
F1.0
sg8
S'Gate'
p1542
sg48
Nsg52
(lp1543
g1422
ag1433
ag1444
ag1455
ag1483
ag1497
ag1486
ag1458
ag1447
ag1436
asg50
g1419
sg67
S'r1-Gate'
p1544
sg227
Nsg228
(lp1545
g0
(g230
g2
Ntp1546
Rp1547
(dp1548
g41
I00
sg42
g0
(g43
g2
Ntp1549
Rp1550
(dp1551
g41
I00
sg42
g1547
sg8
S'gate_base*'
p1552
sg48
Nsg49
I01
sg50
g1419
sg52
(lp1553
g1486
ag1458
ag1447
ag1436
ag1425
asg66
I31
sg67
S'r1-gate_base*'
p1554
sg116
(lp1555
g1486
ag1458
ag1447
ag1436
ag1425
asbsg8
S'gate_base'
p1556
sg48
Nsg49
I00
sg66
I31
sg52
(lp1557
g1422
ag1433
ag1444
ag1455
ag1483
asg50
g1419
sg67
S'r1-gate_base'
p1558
sg116
(lp1559
g1422
ag1433
ag1444
ag1455
ag1483
asg245
I01
sbag0
(g230
g2
Ntp1560
Rp1561
(dp1562
g41
I00
sg42
g0
(g43
g2
Ntp1563
Rp1564
(dp1565
g41
I00
sg42
g1561
sg8
S'out*'
p1566
sg48
Nsg49
I01
sg50
g1419
sg52
(lp1567
g1433
ag1444
ag1455
ag1483
ag1494
asg66
I37
sg67
S'r1-out*'
p1568
sg116
(lp1569
g1433
ag1444
ag1455
ag1483
ag1494
asbsg8
S'out'
p1570
sg48
Nsg49
I00
sg66
I37
sg52
(lp1571
g1497
ag1486
ag1458
ag1447
ag1436
asg50
g1419
sg67
S'r1-out'
p1572
sg116
(lp1573
g1497
ag1486
ag1458
ag1447
ag1436
asg245
I01
sbasg246
S'.......((((((((((((((((((((((((+.............))))))))))))))))))))))))'
p1574
sbasg8
g1514
sg309
(lp1575
g0
(g197
g2
Ntp1576
Rp1577
(dp1578
g201
F1.0
sg8
S'Gate_waste'
p1579
sg48
Nsg52
(lp1580
g1422
ag1433
ag1444
ag1455
ag1483
ag1458
ag1447
ag1436
ag1425
asg50
g1419
sg67
S'r1-Gate_waste'
p1581
sg227
Nsg228
(lp1582
g1547
ag1526
asg246
S'(((((((((((((((((((((((((((((..+)))))))))))))))))))))))))))))'
p1583
sbasg334
Finf
sg50
g1419
sg335
I0
sg67
S'r1-Kin0'
p1584
sbstp1585
Rp1586
(dp1587
g27
(lp1588
g1514
asbsg52
g0
(g11
g12
(dp1589
g1500
g1497
sg1489
g1486
sg1428
g1425
sg1450
g1447
sg1461
g1458
sg1439
g1436
stp1590
Rp1591
(dp1592
g27
(lp1593
g1428
ag1461
ag1450
ag1500
ag1439
ag1489
asbsg419
I1
sg50
g1419
sg420
(lp1594
g422
aS'bm'
p1595
ag359
asg116
g0
(g11
g12
(dp1596
g1500
g1497
sg1450
g1447
sg1461
g1458
sg1439
g1436
sg1428
g1425
sg1489
g1486
sg16
g1413
sg1473
g1475
stp1597
Rp1598
(dp1599
g27
(lp1600
g1428
ag1461
ag1450
ag1500
ag1439
ag1489
ag16
ag1473
asbsg228
g0
(g11
g12
(dp1601
g1320
g1526
sg1556
g1547
sg1570
g1561
stp1602
Rp1603
(dp1604
g27
(lp1605
g1320
ag1556
ag1570
asbsg434
g0
(g11
g12
(dp1606
g1542
g1540
sg16
g1520
sg1579
g1577
sS'Out'
p1607
g0
(g197
g2
Ntp1608
Rp1609
(dp1610
g201
F1.0
sg8
g1607
sg48
Nsg52
(lp1611
g1497
ag1486
ag1458
ag1447
ag1436
asg50
g1419
sg67
S'r1-Out'
p1612
sg227
Nsg228
(lp1613
g1561
asg246
S'.....................................'
p1614
sbstp1615
Rp1616
(dp1617
g27
(lp1618
g16
ag1607
ag1542
ag1579
asbsg440
(lp1619
Nasg442
(lp1620
g1475
asbsS'r2'
p1621
g0
(g32
g2
Ntp1622
Rp1623
(dp1624
g6
(lp1625
g0
(g37
g2
Ntp1626
Rp1627
(dp1628
g41
I00
sg42
g0
(g43
g2
Ntp1629
Rp1630
(dp1631
g41
I00
sg42
g1627
sg8
S'A*'
p1632
sg48
Nsg49
I01
sg50
S'r2-'
p1633
sg52
(lp1634
g0
(g54
g2
Ntp1635
Rp1636
(dp1637
g41
I00
sg42
g0
(g58
g2
Ntp1638
Rp1639
(dp1640
g41
I00
sg62
S'CTCATTT'
p1641
sg8
S'toe-fa'
p1642
sg48
Nsg49
I00
sg50
g1633
sg65
I01
sg66
I7
sg67
S'r2-toe-fa'
p1643
sg42
g1636
sbsg8
S'toe-fa*'
p1644
sg48
Nsg49
I01
sg50
g1633
sg66
I7
sg67
S'r2-toe-fa*'
p1645
sbag0
(g54
g2
Ntp1646
Rp1647
(dp1648
g41
I00
sg42
g0
(g58
g2
Ntp1649
Rp1650
(dp1651
g41
I00
sg62
S'WC'
p1652
sg8
S'cam'
p1653
sg48
Nsg49
I00
sg50
g1633
sg65
I01
sg66
I2
sg67
S'r2-cam'
p1654
sg42
g1647
sbsg8
S'cam*'
p1655
sg48
Nsg49
I01
sg50
g1633
sg66
I2
sg67
S'r2-cam*'
p1656
sbag0
(g54
g2
Ntp1657
Rp1658
(dp1659
g41
I00
sg42
g0
(g58
g2
Ntp1660
Rp1661
(dp1662
g41
I00
sg62
S'HHHHHHHHHHHHH'
p1663
sg8
S'am'
p1664
sg48
Nsg49
I00
sg50
g1633
sg65
I01
sg66
I13
sg67
S'r2-am'
p1665
sg42
g1658
sbsg8
S'am*'
p1666
sg48
Nsg49
I01
sg50
g1633
sg66
I13
sg67
S'r2-am*'
p1667
sbag0
(g54
g2
Ntp1668
Rp1669
(dp1670
g41
I00
sg42
g0
(g58
g2
Ntp1671
Rp1672
(dp1673
g41
I00
sg62
S'ATTCCTT'
p1674
sg8
S'toe-sa'
p1675
sg48
Nsg49
I00
sg50
g1633
sg65
I01
sg66
I7
sg67
S'r2-toe-sa'
p1676
sg42
g1669
sbsg8
S'toe-sa*'
p1677
sg48
Nsg49
I01
sg50
g1633
sg66
I7
sg67
S'r2-toe-sa*'
p1678
sbasg66
I29
sg67
S'r2-A*'
p1679
sg116
(lp1680
g1636
ag1647
ag1658
ag1669
asbsg8
g14
sg48
Nsg49
I00
sg66
I29
sg52
(lp1681
g1672
ag1661
ag1650
ag1639
asg50
g1633
sg67
S'r2-A'
p1682
sg116
(lp1683
g1672
ag1661
ag1650
ag1639
asbag0
(g37
g2
Ntp1684
Rp1685
(dp1686
g41
I00
sg42
g0
(g43
g2
Ntp1687
Rp1688
(dp1689
g41
I00
sg42
g1685
sg8
S'B*'
p1690
sg48
Nsg49
I01
sg50
g1633
sg52
(lp1691
g0
(g54
g2
Ntp1692
Rp1693
(dp1694
g41
I00
sg42
g0
(g58
g2
Ntp1695
Rp1696
(dp1697
g41
I00
sg62
S'H'
p1698
sg8
S'toe-fb-prefix'
p1699
sg48
Nsg49
I00
sg50
g1633
sg65
I01
sg66
I1
sg67
S'r2-toe-fb-prefix'
p1700
sg42
g1693
sbsg8
S'toe-fb-prefix*'
p1701
sg48
Nsg49
I01
sg50
g1633
sg66
I1
sg67
S'r2-toe-fb-prefix*'
p1702
sbag0
(g54
g2
Ntp1703
Rp1704
(dp1705
g41
I00
sg42
g0
(g58
g2
Ntp1706
Rp1707
(dp1708
g41
I00
sg62
S'HHHHHH'
p1709
sg8
S'toe-fb-suffix'
p1710
sg48
Nsg49
I00
sg50
g1633
sg65
I01
sg66
I6
sg67
S'r2-toe-fb-suffix'
p1711
sg42
g1704
sbsg8
S'toe-fb-suffix*'
p1712
sg48
Nsg49
I01
sg50
g1633
sg66
I6
sg67
S'r2-toe-fb-suffix*'
p1713
sbag0
(g54
g2
Ntp1714
Rp1715
(dp1716
g41
I00
sg42
g0
(g58
g2
Ntp1717
Rp1718
(dp1719
g41
I00
sg62
S'WC'
p1720
sg8
S'cbm'
p1721
sg48
Nsg49
I00
sg50
g1633
sg65
I01
sg66
I2
sg67
S'r2-cbm'
p1722
sg42
g1715
sbsg8
S'cbm*'
p1723
sg48
Nsg49
I01
sg50
g1633
sg66
I2
sg67
S'r2-cbm*'
p1724
sbag0
(g54
g2
Ntp1725
Rp1726
(dp1727
g41
I00
sg42
g0
(g58
g2
Ntp1728
Rp1729
(dp1730
g41
I00
sg62
S'HHHHHHHHHHHHH'
p1731
sg8
S'bm'
p1732
sg48
Nsg49
I00
sg50
g1633
sg65
I01
sg66
I13
sg67
S'r2-bm'
p1733
sg42
g1726
sbsg8
S'bm*'
p1734
sg48
Nsg49
I01
sg50
g1633
sg66
I13
sg67
S'r2-bm*'
p1735
sbag0
(g54
g2
Ntp1736
Rp1737
(dp1738
g41
I00
sg42
g0
(g58
g2
Ntp1739
Rp1740
(dp1741
g41
I00
sg62
S'HHHHHHH'
p1742
sg8
S'toe-sb'
p1743
sg48
Nsg49
I00
sg50
g1633
sg65
I01
sg66
I7
sg67
S'r2-toe-sb'
p1744
sg42
g1737
sbsg8
S'toe-sb*'
p1745
sg48
Nsg49
I01
sg50
g1633
sg66
I7
sg67
S'r2-toe-sb*'
p1746
sbasg66
I29
sg67
S'r2-B*'
p1747
sg116
(lp1748
g1693
ag1704
ag1715
ag1726
ag1737
asbsg8
g16
sg48
Nsg49
I00
sg66
I29
sg52
(lp1749
g1740
ag1729
ag1718
ag1707
ag1696
asg50
g1633
sg67
S'r2-B'
p1750
sg116
(lp1751
g1740
ag1729
ag1718
ag1707
ag1696
asbasg8
S'gate_bim_react'
p1752
sg123
(lp1753
NaNasg125
g0
(g11
g12
(dp1754
g14
g1627
sS'Out'
p1755
g0
(g37
g2
Ntp1756
Rp1757
(dp1758
g41
I00
sg42
g0
(g43
g2
Ntp1759
Rp1760
(dp1761
g41
I00
sg42
g1757
sg8
S'Out*'
p1762
sg48
Nsg49
I01
sg50
g1633
sg52
(lp1763
g1715
ag1726
ag1737
ag0
(g54
g2
Ntp1764
Rp1765
(dp1766
g41
I00
sg42
g0
(g58
g2
Ntp1767
Rp1768
(dp1769
g41
I00
sg62
S'CW'
p1770
sg8
S'cch'
p1771
sg48
Nsg49
I00
sg50
g1633
sg65
I01
sg66
I2
sg67
S'r2-cch'
p1772
sg42
g1765
sbsg8
S'cch*'
p1773
sg48
Nsg49
I01
sg50
g1633
sg66
I2
sg67
S'r2-cch*'
p1774
sbag0
(g54
g2
Ntp1775
Rp1776
(dp1777
g41
I00
sg42
g0
(g58
g2
Ntp1778
Rp1779
(dp1780
g41
I00
sg62
S'CHHHHHHHHHHHH'
p1781
sg8
S'ch'
p1782
sg48
Nsg49
I00
sg50
g1633
sg65
I01
sg66
I13
sg67
S'r2-ch'
p1783
sg42
g1776
sbsg8
S'ch*'
p1784
sg48
Nsg49
I01
sg50
g1633
sg66
I13
sg67
S'r2-ch*'
p1785
sbasg66
I37
sg67
S'r2-Out*'
p1786
sg116
(lp1787
g1715
ag1726
ag1737
ag1765
ag1776
asbsg8
g1755
sg48
Nsg49
I00
sg66
I37
sg52
(lp1788
g1779
ag1768
ag1740
ag1729
ag1718
asg50
g1633
sg67
S'r2-Out'
p1789
sg116
(lp1790
g1779
ag1768
ag1740
ag1729
ag1718
asbsg16
g1685
sS'toe-fb'
p1791
g0
(g37
g2
Ntp1792
Rp1793
(dp1794
g41
I00
sg42
g0
(g43
g2
Ntp1795
Rp1796
(dp1797
g41
I00
sg42
g1793
sg8
S'toe-fb*'
p1798
sg48
Nsg49
I01
sg50
g1633
sg52
(lp1799
g1693
ag1704
asg66
I7
sg67
S'r2-toe-fb*'
p1800
sg116
(lp1801
g1693
ag1704
asbsg8
g1791
sg48
Nsg49
I00
sg66
I7
sg52
(lp1802
g1707
ag1696
asg50
g1633
sg67
S'r2-toe-fb'
p1803
sg116
(lp1804
g1707
ag1696
asbstp1805
Rp1806
(dp1807
g27
(lp1808
g1791
ag14
ag16
ag1755
asbsg188
g0
(g11
g12
(dp1809
S'Kin2'
p1810
g0
(g191
g2
Ntp1811
Rp1812
(dp1813
g195
(lp1814
g0
(g197
g2
Ntp1815
Rp1816
(dp1817
g201
F1.0
sg8
g16
sg48
Nsg52
(lp1818
g1740
ag1729
ag1718
ag1707
ag1696
asg50
g1633
sg67
S'r2-B'
p1819
sg227
Nsg228
(lp1820
g0
(g230
g2
Ntp1821
Rp1822
(dp1823
g41
I00
sg42
g0
(g43
g2
Ntp1824
Rp1825
(dp1826
g41
I00
sg42
g1822
sg8
S'b*'
p1827
sg48
Nsg49
I01
sg50
g1633
sg52
(lp1828
g1693
ag1704
ag1715
ag1726
ag1737
asg66
I29
sg67
S'r2-b*'
p1829
sg116
(lp1830
g1693
ag1704
ag1715
ag1726
ag1737
asbsg8
g1320
sg48
Nsg49
I00
sg66
I29
sg52
(lp1831
g1740
ag1729
ag1718
ag1707
ag1696
asg50
g1633
sg67
S'r2-b'
p1832
sg116
(lp1833
g1740
ag1729
ag1718
ag1707
ag1696
asg245
I01
sbasg246
S'.............................'
p1834
sbag0
(g197
g2
Ntp1835
Rp1836
(dp1837
g201
F1.0
sg8
S'Gate_int'
p1838
sg48
Nsg52
(lp1839
g1636
ag1647
ag1658
ag1669
ag1704
ag1715
ag1726
ag1737
ag1765
ag1779
ag1768
ag1740
ag1729
ag1718
ag1672
ag1661
ag1650
ag1639
asg50
g1633
sg67
S'r2-Gate_int'
p1840
sg227
Nsg228
(lp1841
g0
(g230
g2
Ntp1842
Rp1843
(dp1844
g41
I00
sg42
g0
(g43
g2
Ntp1845
Rp1846
(dp1847
g41
I00
sg42
g1843
sg8
S'gate_base*'
p1848
sg48
Nsg49
I01
sg50
g1633
sg52
(lp1849
g1768
ag1740
ag1729
ag1718
ag1707
ag1672
ag1661
ag1650
ag1639
asg66
I59
sg67
S'r2-gate_base*'
p1850
sg116
(lp1851
g1768
ag1740
ag1729
ag1718
ag1707
ag1672
ag1661
ag1650
ag1639
asbsg8
S'gate_base'
p1852
sg48
Nsg49
I00
sg66
I59
sg52
(lp1853
g1636
ag1647
ag1658
ag1669
ag1704
ag1715
ag1726
ag1737
ag1765
asg50
g1633
sg67
S'r2-gate_base'
p1854
sg116
(lp1855
g1636
ag1647
ag1658
ag1669
ag1704
ag1715
ag1726
ag1737
ag1765
asg245
I01
sbag0
(g230
g2
Ntp1856
Rp1857
(dp1858
g41
I00
sg42
g0
(g43
g2
Ntp1859
Rp1860
(dp1861
g41
I00
sg42
g1857
sg8
S'out*'
p1862
sg48
Nsg49
I01
sg50
g1633
sg52
(lp1863
g1715
ag1726
ag1737
ag1765
ag1776
asg66
I37
sg67
S'r2-out*'
p1864
sg116
(lp1865
g1715
ag1726
ag1737
ag1765
ag1776
asbsg8
S'out'
p1866
sg48
Nsg49
I00
sg66
I37
sg52
(lp1867
g1779
ag1768
ag1740
ag1729
ag1718
asg50
g1633
sg67
S'r2-out'
p1868
sg116
(lp1869
g1779
ag1768
ag1740
ag1729
ag1718
asg245
I01
sbag0
(g230
g2
Ntp1870
Rp1871
(dp1872
g41
I00
sg42
g0
(g43
g2
Ntp1873
Rp1874
(dp1875
g41
I00
sg42
g1871
sg8
S'a*'
p1876
sg48
Nsg49
I01
sg50
g1633
sg52
(lp1877
g1636
ag1647
ag1658
ag1669
asg66
I29
sg67
S'r2-a*'
p1878
sg116
(lp1879
g1636
ag1647
ag1658
ag1669
asbsg8
S'a'
p1880
sg48
Nsg49
I00
sg66
I29
sg52
(lp1881
g1672
ag1661
ag1650
ag1639
asg50
g1633
sg67
S'r2-a'
p1882
sg116
(lp1883
g1672
ag1661
ag1650
ag1639
asg245
I01
sbasg246
S'(((((((((((((((((((((((((((((......((((((((((((((((((((((((+.............))))))))))))))))))))))))+)))))))))))))))))))))))))))))'
p1884
sbasg8
g1810
sg309
(lp1885
g0
(g197
g2
Ntp1886
Rp1887
(dp1888
g201
F1.0
sg8
S'Gate_waste'
p1889
sg48
Nsg52
(lp1890
g1636
ag1647
ag1658
ag1669
ag1704
ag1715
ag1726
ag1737
ag1765
ag1740
ag1729
ag1718
ag1707
ag1696
ag1672
ag1661
ag1650
ag1639
asg50
g1633
sg67
S'r2-Gate_waste'
p1891
sg227
Nsg228
(lp1892
g1843
ag1822
ag1871
asg246
S'(((((((((((((((((((((((((((((((((((((((((((((((((((((((((..+)))))))))))))))))))))))))))).+)))))))))))))))))))))))))))))'
p1893
sbag0
(g197
g2
Ntp1894
Rp1895
(dp1896
g201
F1.0
sg8
S'Out'
p1897
sg48
Nsg52
(lp1898
g1779
ag1768
ag1740
ag1729
ag1718
asg50
g1633
sg67
S'r2-Out'
p1899
sg227
Nsg228
(lp1900
g1857
asg246
S'.....................................'
p1901
sbasg334
Finf
sg50
g1633
sg335
I0
sg67
S'r2-Kin2'
p1902
sbsS'Kin0'
p1903
g0
(g191
g2
Ntp1904
Rp1905
(dp1906
g195
(lp1907
g0
(g197
g2
Ntp1908
Rp1909
(dp1910
g201
F1.0
sg8
g14
sg48
Nsg52
(lp1911
g1672
ag1661
ag1650
ag1639
asg50
g1633
sg67
S'r2-A'
p1912
sg227
Nsg228
(lp1913
g1871
asg246
S'.............................'
p1914
sbag0
(g197
g2
Ntp1915
Rp1916
(dp1917
g201
F1.0
sg8
S'Gate'
p1918
sg48
Nsg52
(lp1919
g1636
ag1647
ag1658
ag1669
ag1704
ag1715
ag1726
ag1737
ag1765
ag1779
ag1768
ag1740
ag1729
ag1718
ag1707
ag1672
ag1661
ag1650
asg50
g1633
sg67
S'r2-Gate'
p1920
sg227
Nsg228
(lp1921
g1843
ag1857
ag0
(g230
g2
Ntp1922
Rp1923
(dp1924
g41
I00
sg42
g0
(g43
g2
Ntp1925
Rp1926
(dp1927
g41
I00
sg42
g1923
sg8
S'backward*'
p1928
sg48
Nsg49
I01
sg50
g1633
sg52
(lp1929
g1647
ag1658
ag1669
ag1704
asg66
I28
sg67
S'r2-backward*'
p1930
sg116
(lp1931
g1647
ag1658
ag1669
ag1704
asbsg8
S'backward'
p1932
sg48
Nsg49
I00
sg66
I28
sg52
(lp1933
g1707
ag1672
ag1661
ag1650
asg50
g1633
sg67
S'r2-backward'
p1934
sg116
(lp1935
g1707
ag1672
ag1661
ag1650
asg245
I01
sbasg246
S'.......((((((((((((((((((((((((((((((((((((((((((((((((((((+.............))))))))))))))))))))))))+))))))))))))))))))))))))))))'
p1936
sbasg8
g1903
sg309
(lp1937
g1836
ag0
(g197
g2
Ntp1938
Rp1939
(dp1940
g201
F1.0
sg8
S'Backward'
p1941
sg48
Nsg52
(lp1942
g1707
ag1672
ag1661
ag1650
asg50
g1633
sg67
S'r2-Backward'
p1943
sg227
Nsg228
(lp1944
g1923
asg246
S'............................'
p1945
sbasg334
Finf
sg50
g1633
sg335
I0
sg67
S'r2-Kin0'
p1946
sbsS'Kin1'
p1947
g0
(g191
g2
Ntp1948
Rp1949
(dp1950
g195
(lp1951
g1836
ag1939
asg8
g1947
sg309
(lp1952
g1909
ag1916
asg334
Finf
sg50
g1633
sg335
I0
sg67
S'r2-Kin1'
p1953
sbstp1954
Rp1955
(dp1956
g27
(lp1957
g1903
ag1947
ag1810
asbsg52
g0
(g11
g12
(dp1958
g1642
g1639
sg1782
g1779
sg1743
g1740
sg1664
g1661
sg1675
g1672
sg1699
g1696
sg1771
g1768
sg1653
g1650
sg1732
g1729
sg1721
g1718
sg1710
g1707
stp1959
Rp1960
(dp1961
g27
(lp1962
g1642
ag1675
ag1710
ag1699
ag1743
ag1664
ag1732
ag1782
ag1653
ag1721
ag1771
asbsg419
I3
sg50
g1633
sg420
(lp1963
g422
aS'bm'
p1964
ag359
asg116
g0
(g11
g12
(dp1965
g1642
g1639
sg14
g1627
sg1791
g1793
sg1743
g1740
sg1664
g1661
sg1675
g1672
sg1699
g1696
sg1782
g1779
sg1771
g1768
sg1653
g1650
sg1732
g1729
sg16
g1685
sg1721
g1718
sg1710
g1707
sg1755
g1757
stp1966
Rp1967
(dp1968
g27
(lp1969
g1642
ag1675
ag1710
ag1699
ag1743
ag1791
ag1664
ag1732
ag1782
ag1653
ag1721
ag1771
ag14
ag16
ag1755
asbsg228
g0
(g11
g12
(dp1970
g1880
g1871
sg1320
g1822
sg1932
g1923
sg1852
g1843
sg1866
g1857
stp1971
Rp1972
(dp1973
g27
(lp1974
g1880
ag1320
ag1932
ag1852
ag1866
asbsg434
g0
(g11
g12
(dp1975
g14
g1909
sg16
g1816
sg1918
g1916
sg1941
g1939
sg1838
g1836
sg1889
g1887
sg1897
g1895
stp1976
Rp1977
(dp1978
g27
(lp1979
g14
ag16
ag1941
ag1897
ag1918
ag1838
ag1889
asbsg440
(lp1980
Nasg442
(lp1981
g1757
asbsS'eq1'
p1982
g0
(g32
g2
Ntp1983
Rp1984
(dp1985
g6
(lp1986
g0
(g37
g2
Ntp1987
Rp1988
(dp1989
g41
I00
sg42
g0
(g43
g2
Ntp1990
Rp1991
(dp1992
g41
I00
sg42
g1988
sg8
S'A*'
p1993
sg48
Nsg49
I01
sg50
S'eq1-'
p1994
sg52
(lp1995
g0
(g54
g2
Ntp1996
Rp1997
(dp1998
g41
I00
sg42
g0
(g58
g2
Ntp1999
Rp2000
(dp2001
g41
I00
sg62
S'HHHHHHH'
p2002
sg8
S'toe-fa'
p2003
sg48
Nsg49
I00
sg50
g1994
sg65
I01
sg66
I7
sg67
S'eq1-toe-fa'
p2004
sg42
g1997
sbsg8
S'toe-fa*'
p2005
sg48
Nsg49
I01
sg50
g1994
sg66
I7
sg67
S'eq1-toe-fa*'
p2006
sbag0
(g54
g2
Ntp2007
Rp2008
(dp2009
g41
I00
sg42
g0
(g58
g2
Ntp2010
Rp2011
(dp2012
g41
I00
sg62
S'WC'
p2013
sg8
S'ca'
p2014
sg48
Nsg49
I00
sg50
g1994
sg65
I01
sg66
I2
sg67
S'eq1-ca'
p2015
sg42
g2008
sbsg8
S'ca*'
p2016
sg48
Nsg49
I01
sg50
g1994
sg66
I2
sg67
S'eq1-ca*'
p2017
sbag0
(g54
g2
Ntp2018
Rp2019
(dp2020
g41
I00
sg42
g0
(g58
g2
Ntp2021
Rp2022
(dp2023
g41
I00
sg62
S'HHHHHHHHHHHHH'
p2024
sg8
g1880
sg48
Nsg49
I00
sg50
g1994
sg65
I01
sg66
I13
sg67
S'eq1-a'
p2025
sg42
g2019
sbsg8
S'a*'
p2026
sg48
Nsg49
I01
sg50
g1994
sg66
I13
sg67
S'eq1-a*'
p2027
sbag0
(g54
g2
Ntp2028
Rp2029
(dp2030
g41
I00
sg42
g0
(g58
g2
Ntp2031
Rp2032
(dp2033
g41
I00
sg62
S'HHHHHHH'
p2034
sg8
S'toe-sa'
p2035
sg48
Nsg49
I00
sg50
g1994
sg65
I01
sg66
I7
sg67
S'eq1-toe-sa'
p2036
sg42
g2029
sbsg8
S'toe-sa*'
p2037
sg48
Nsg49
I01
sg50
g1994
sg66
I7
sg67
S'eq1-toe-sa*'
p2038
sbasg66
I29
sg67
S'eq1-A*'
p2039
sg116
(lp2040
g1997
ag2008
ag2019
ag2029
asbsg8
g14
sg48
Nsg49
I00
sg66
I29
sg52
(lp2041
g2032
ag2022
ag2011
ag2000
asg50
g1994
sg67
S'eq1-A'
p2042
sg116
(lp2043
g2032
ag2022
ag2011
ag2000
asbasg8
S'set_signals_equal'
p2044
sg123
(lp2045
Nasg125
g0
(g11
g12
(dp2046
g14
g1988
sg16
g0
(g37
g2
Ntp2047
Rp2048
(dp2049
g41
I00
sg42
g0
(g43
g2
Ntp2050
Rp2051
(dp2052
g41
I00
sg42
g2048
sg8
S'B*'
p2053
sg48
Nsg49
I01
sg50
g1994
sg52
(lp2054
g0
(g54
g2
Ntp2055
Rp2056
(dp2057
g41
I00
sg42
g0
(g58
g2
Ntp2058
Rp2059
(dp2060
g41
I00
sg62
S'CW'
p2061
sg8
S'cbh'
p2062
sg48
Nsg49
I00
sg50
g1994
sg65
I01
sg66
I2
sg67
S'eq1-cbh'
p2063
sg42
g2056
sbsg8
S'cbh*'
p2064
sg48
Nsg49
I01
sg50
g1994
sg66
I2
sg67
S'eq1-cbh*'
p2065
sbag0
(g54
g2
Ntp2066
Rp2067
(dp2068
g41
I00
sg42
g0
(g58
g2
Ntp2069
Rp2070
(dp2071
g41
I00
sg62
S'CHHHHHHHHHHHH'
p2072
sg8
S'bh'
p2073
sg48
Nsg49
I00
sg50
g1994
sg65
I01
sg66
I13
sg67
S'eq1-bh'
p2074
sg42
g2067
sbsg8
S'bh*'
p2075
sg48
Nsg49
I01
sg50
g1994
sg66
I13
sg67
S'eq1-bh*'
p2076
sbag1997
ag2008
ag2019
ag2029
asg66
I44
sg67
S'eq1-B*'
p2077
sg116
(lp2078
g2056
ag2067
ag1997
ag2008
ag2019
ag2029
asbsg8
g16
sg48
Nsg49
I00
sg66
I44
sg52
(lp2079
g2032
ag2022
ag2011
ag2000
ag2070
ag2059
asg50
g1994
sg67
S'eq1-B'
p2080
sg116
(lp2081
g2032
ag2022
ag2011
ag2000
ag2070
ag2059
asbstp2082
Rp2083
(dp2084
g27
(lp2085
g14
ag16
asbsg188
g0
(g11
g12
(dp2086
tp2087
Rp2088
(dp2089
g27
(lp2090
sbsg52
g0
(g11
g12
(dp2091
g2003
g2000
sg1880
g2022
sg2014
g2011
sg2073
g2070
sg2062
g2059
sg2035
g2032
stp2092
Rp2093
(dp2094
g27
(lp2095
g2003
ag2035
ag1880
ag2073
ag2014
ag2062
asbsg419
I0
sg50
g1994
sg420
(lp2096
g422
aS'bm'
p2097
ag359
asg116
g0
(g11
g12
(dp2098
g2003
g2000
sg1880
g2022
sg16
g2048
sg2014
g2011
sg2073
g2070
sg2035
g2032
sg14
g1988
sg2062
g2059
stp2099
Rp2100
(dp2101
g27
(lp2102
g2003
ag2035
ag1880
ag2073
ag2014
ag2062
ag14
ag16
asbsg228
g0
(g11
g12
(dp2103
S'B_strand'
p2104
g0
(g230
g2
Ntp2105
Rp2106
(dp2107
g41
I00
sg42
g0
(g43
g2
Ntp2108
Rp2109
(dp2110
g41
I00
sg42
g2106
sg8
S'B_strand*'
p2111
sg48
Nsg49
I01
sg50
g1994
sg52
(lp2112
g2032
ag2022
ag2011
ag2000
ag2070
ag2059
asg66
I44
sg67
S'eq1-B_strand*'
p2113
sg116
(lp2114
g2032
ag2022
ag2011
ag2000
ag2070
ag2059
asbsg8
g2104
sg48
Nsg49
I00
sg66
I44
sg52
(lp2115
g2056
ag2067
ag1997
ag2008
ag2019
ag2029
asg50
g1994
sg67
S'eq1-B_strand'
p2116
sg116
(lp2117
g2056
ag2067
ag1997
ag2008
ag2019
ag2029
asg245
I01
sbsS'A_strand'
p2118
g0
(g230
g2
Ntp2119
Rp2120
(dp2121
g41
I00
sg42
g0
(g43
g2
Ntp2122
Rp2123
(dp2124
g41
I00
sg42
g2120
sg8
S'A_strand*'
p2125
sg48
Nsg49
I01
sg50
g1994
sg52
(lp2126
g1997
ag2008
ag2019
ag2029
asg66
I29
sg67
S'eq1-A_strand*'
p2127
sg116
(lp2128
g1997
ag2008
ag2019
ag2029
asbsg8
g2118
sg48
Nsg49
I00
sg66
I29
sg52
(lp2129
g2032
ag2022
ag2011
ag2000
asg50
g1994
sg67
S'eq1-A_strand'
p2130
sg116
(lp2131
g2032
ag2022
ag2011
ag2000
asg245
I01
sbstp2132
Rp2133
(dp2134
g27
(lp2135
g2118
ag2104
asbsg434
g0
(g11
g12
(dp2136
S'constraint'
p2137
g0
(g197
g2
Ntp2138
Rp2139
(dp2140
g201
F1.0
sg8
g2137
sg48
Nsg52
(lp2141
g2032
ag2022
ag2011
ag2000
ag2056
ag2067
ag1997
ag2008
ag2019
ag2029
asg50
g1994
sg67
S'eq1-constraint'
p2142
sg227
Nsg228
(lp2143
g2120
ag2106
asg246
S'(((((((((((((((((((((((((((((+...............)))))))))))))))))))))))))))))'
p2144
sbstp2145
Rp2146
(dp2147
g27
(lp2148
g2137
asbsg440
(lp2149
Nasg442
(lp2150
g2048
asbsS'eq0'
p2151
g0
(g32
g2
Ntp2152
Rp2153
(dp2154
g6
(lp2155
g0
(g37
g2
Ntp2156
Rp2157
(dp2158
g41
I00
sg42
g0
(g43
g2
Ntp2159
Rp2160
(dp2161
g41
I00
sg42
g2157
sg8
S'A*'
p2162
sg48
Nsg49
I01
sg50
S'eq0-'
p2163
sg52
(lp2164
g0
(g54
g2
Ntp2165
Rp2166
(dp2167
g41
I00
sg42
g0
(g58
g2
Ntp2168
Rp2169
(dp2170
g41
I00
sg62
S'HHHHHHH'
p2171
sg8
S'toe-fa'
p2172
sg48
Nsg49
I00
sg50
g2163
sg65
I01
sg66
I7
sg67
S'eq0-toe-fa'
p2173
sg42
g2166
sbsg8
S'toe-fa*'
p2174
sg48
Nsg49
I01
sg50
g2163
sg66
I7
sg67
S'eq0-toe-fa*'
p2175
sbag0
(g54
g2
Ntp2176
Rp2177
(dp2178
g41
I00
sg42
g0
(g58
g2
Ntp2179
Rp2180
(dp2181
g41
I00
sg62
S'WC'
p2182
sg8
S'ca'
p2183
sg48
Nsg49
I00
sg50
g2163
sg65
I01
sg66
I2
sg67
S'eq0-ca'
p2184
sg42
g2177
sbsg8
S'ca*'
p2185
sg48
Nsg49
I01
sg50
g2163
sg66
I2
sg67
S'eq0-ca*'
p2186
sbag0
(g54
g2
Ntp2187
Rp2188
(dp2189
g41
I00
sg42
g0
(g58
g2
Ntp2190
Rp2191
(dp2192
g41
I00
sg62
S'HHHHHHHHHHHHH'
p2193
sg8
g1880
sg48
Nsg49
I00
sg50
g2163
sg65
I01
sg66
I13
sg67
S'eq0-a'
p2194
sg42
g2188
sbsg8
S'a*'
p2195
sg48
Nsg49
I01
sg50
g2163
sg66
I13
sg67
S'eq0-a*'
p2196
sbag0
(g54
g2
Ntp2197
Rp2198
(dp2199
g41
I00
sg42
g0
(g58
g2
Ntp2200
Rp2201
(dp2202
g41
I00
sg62
S'HHHHHHH'
p2203
sg8
S'toe-sa'
p2204
sg48
Nsg49
I00
sg50
g2163
sg65
I01
sg66
I7
sg67
S'eq0-toe-sa'
p2205
sg42
g2198
sbsg8
S'toe-sa*'
p2206
sg48
Nsg49
I01
sg50
g2163
sg66
I7
sg67
S'eq0-toe-sa*'
p2207
sbasg66
I29
sg67
S'eq0-A*'
p2208
sg116
(lp2209
g2166
ag2177
ag2188
ag2198
asbsg8
g14
sg48
Nsg49
I00
sg66
I29
sg52
(lp2210
g2201
ag2191
ag2180
ag2169
asg50
g2163
sg67
S'eq0-A'
p2211
sg116
(lp2212
g2201
ag2191
ag2180
ag2169
asbasg8
S'set_signals_equal'
p2213
sg123
(lp2214
Nasg125
g0
(g11
g12
(dp2215
g14
g2157
sg16
g0
(g37
g2
Ntp2216
Rp2217
(dp2218
g41
I00
sg42
g0
(g43
g2
Ntp2219
Rp2220
(dp2221
g41
I00
sg42
g2217
sg8
S'B*'
p2222
sg48
Nsg49
I01
sg50
g2163
sg52
(lp2223
g0
(g54
g2
Ntp2224
Rp2225
(dp2226
g41
I00
sg42
g0
(g58
g2
Ntp2227
Rp2228
(dp2229
g41
I00
sg62
S'CW'
p2230
sg8
S'cbh'
p2231
sg48
Nsg49
I00
sg50
g2163
sg65
I01
sg66
I2
sg67
S'eq0-cbh'
p2232
sg42
g2225
sbsg8
S'cbh*'
p2233
sg48
Nsg49
I01
sg50
g2163
sg66
I2
sg67
S'eq0-cbh*'
p2234
sbag0
(g54
g2
Ntp2235
Rp2236
(dp2237
g41
I00
sg42
g0
(g58
g2
Ntp2238
Rp2239
(dp2240
g41
I00
sg62
S'CHHHHHHHHHHHH'
p2241
sg8
S'bh'
p2242
sg48
Nsg49
I00
sg50
g2163
sg65
I01
sg66
I13
sg67
S'eq0-bh'
p2243
sg42
g2236
sbsg8
S'bh*'
p2244
sg48
Nsg49
I01
sg50
g2163
sg66
I13
sg67
S'eq0-bh*'
p2245
sbag2166
ag2177
ag2188
ag2198
asg66
I44
sg67
S'eq0-B*'
p2246
sg116
(lp2247
g2225
ag2236
ag2166
ag2177
ag2188
ag2198
asbsg8
g16
sg48
Nsg49
I00
sg66
I44
sg52
(lp2248
g2201
ag2191
ag2180
ag2169
ag2239
ag2228
asg50
g2163
sg67
S'eq0-B'
p2249
sg116
(lp2250
g2201
ag2191
ag2180
ag2169
ag2239
ag2228
asbstp2251
Rp2252
(dp2253
g27
(lp2254
g14
ag16
asbsg188
g0
(g11
g12
(dp2255
tp2256
Rp2257
(dp2258
g27
(lp2259
sbsg52
g0
(g11
g12
(dp2260
g2172
g2169
sg1880
g2191
sg2183
g2180
sg2242
g2239
sg2231
g2228
sg2204
g2201
stp2261
Rp2262
(dp2263
g27
(lp2264
g2172
ag2204
ag1880
ag2242
ag2183
ag2231
asbsg419
I0
sg50
g2163
sg420
(lp2265
g422
aS'bm'
p2266
ag359
asg116
g0
(g11
g12
(dp2267
g2172
g2169
sg1880
g2191
sg16
g2217
sg2183
g2180
sg2242
g2239
sg2204
g2201
sg14
g2157
sg2231
g2228
stp2268
Rp2269
(dp2270
g27
(lp2271
g2172
ag2204
ag1880
ag2242
ag2183
ag2231
ag14
ag16
asbsg228
g0
(g11
g12
(dp2272
S'B_strand'
p2273
g0
(g230
g2
Ntp2274
Rp2275
(dp2276
g41
I00
sg42
g0
(g43
g2
Ntp2277
Rp2278
(dp2279
g41
I00
sg42
g2275
sg8
S'B_strand*'
p2280
sg48
Nsg49
I01
sg50
g2163
sg52
(lp2281
g2201
ag2191
ag2180
ag2169
ag2239
ag2228
asg66
I44
sg67
S'eq0-B_strand*'
p2282
sg116
(lp2283
g2201
ag2191
ag2180
ag2169
ag2239
ag2228
asbsg8
g2273
sg48
Nsg49
I00
sg66
I44
sg52
(lp2284
g2225
ag2236
ag2166
ag2177
ag2188
ag2198
asg50
g2163
sg67
S'eq0-B_strand'
p2285
sg116
(lp2286
g2225
ag2236
ag2166
ag2177
ag2188
ag2198
asg245
I01
sbsS'A_strand'
p2287
g0
(g230
g2
Ntp2288
Rp2289
(dp2290
g41
I00
sg42
g0
(g43
g2
Ntp2291
Rp2292
(dp2293
g41
I00
sg42
g2289
sg8
S'A_strand*'
p2294
sg48
Nsg49
I01
sg50
g2163
sg52
(lp2295
g2166
ag2177
ag2188
ag2198
asg66
I29
sg67
S'eq0-A_strand*'
p2296
sg116
(lp2297
g2166
ag2177
ag2188
ag2198
asbsg8
g2287
sg48
Nsg49
I00
sg66
I29
sg52
(lp2298
g2201
ag2191
ag2180
ag2169
asg50
g2163
sg67
S'eq0-A_strand'
p2299
sg116
(lp2300
g2201
ag2191
ag2180
ag2169
asg245
I01
sbstp2301
Rp2302
(dp2303
g27
(lp2304
g2287
ag2273
asbsg434
g0
(g11
g12
(dp2305
S'constraint'
p2306
g0
(g197
g2
Ntp2307
Rp2308
(dp2309
g201
F1.0
sg8
g2306
sg48
Nsg52
(lp2310
g2201
ag2191
ag2180
ag2169
ag2225
ag2236
ag2166
ag2177
ag2188
ag2198
asg50
g2163
sg67
S'eq0-constraint'
p2311
sg227
Nsg228
(lp2312
g2289
ag2275
asg246
S'(((((((((((((((((((((((((((((+...............)))))))))))))))))))))))))))))'
p2313
sbstp2314
Rp2315
(dp2316
g27
(lp2317
g2306
asbsg440
(lp2318
Nasg442
(lp2319
g2217
asbstp2320
Rp2321
(dp2322
g27
(lp2323
g1192
ag444
ag1407
ag818
ag1621
ag31
ag2151
ag1982
asbsg123
(lp2324
sg125
g0
(g11
g12
(dp2325
S'eq1-A'
p2326
g1988
sS'r2-Out'
p2327
g1757
sS'eq1-B'
p2328
g2048
sS'r2-B'
p2329
g1685
sS'r2-A'
p2330
g1627
sS'r1-B'
p2331
g1413
sS'p2-Out'
p2332
g39
sS'r1-Out'
p2333
g1475
sS'p0-Out'
p2334
g450
sS'r0-B'
p2335
g1198
sS'p0-C'
p2336
g523
sS'p2-C'
p2337
g128
sS'p1-C'
p2338
g897
sS'r2-toe-fb'
p2339
g1793
sS'r0-Out'
p2340
g1260
sS'p1-Out'
p2341
g824
sS'eq0-A'
p2342
g2157
sS'eq0-B'
p2343
g2217
stp2344
Rp2345
(dp2346
g27
(lp2347
g2335
ag2340
ag2334
ag2336
ag2331
ag2333
ag2341
ag2338
ag2339
ag2330
ag2329
ag2327
ag2332
ag2337
ag2342
ag2343
ag2326
ag2328
asbsg188
g0
(g11
g12
(dp2348
S'r2-Kin0'
p2349
g1905
sS'r2-Kin1'
p2350
g1949
sS'r2-Kin2'
p2351
g1812
sS'p1-Kin2'
p2352
g960
sS'p1-Kin1'
p2353
g1129
sS'p1-Kin0'
p2354
g1094
sS'p0-Kin0'
p2355
g720
sS'p0-Kin1'
p2356
g755
sS'p0-Kin2'
p2357
g586
sS'p2-Kin2'
p2358
g193
sS'p2-Kin0'
p2359
g339
sS'p2-Kin1'
p2360
g375
sS'r0-Kin0'
p2361
g1301
sS'r1-Kin0'
p2362
g1516
stp2363
Rp2364
(dp2365
g27
(lp2366
g2361
ag2355
ag2356
ag2357
ag2362
ag2354
ag2353
ag2352
ag2349
ag2350
ag2351
ag2359
ag2360
ag2358
asbsS'includes'
p2367
(lp2368
S'/home/jmp/Dropbox/CRNtoDNASoftware/crn_compiler'
p2369
asS'signals'
p2370
g0
(g11
g12
(dp2371
g14
(lp2372
(g1627
g1621
I00
tp2373
asg15
(lp2374
(g1413
g1407
I00
tp2375
asg16
(lp2376
(g1198
g1192
I00
tp2377
a(g1685
g1621
I00
tp2378
asg17
(lp2379
(g2157
g2151
I00
tp2380
a(g1988
g1982
I00
tp2381
asg18
(lp2382
(g1757
g1621
I00
tp2383
a(g39
g31
I00
tp2384
asg19
(lp2385
(g1260
g1192
I00
tp2386
a(g450
g444
I00
tp2387
asg20
(lp2388
(g1475
g1407
I00
tp2389
a(g824
g818
I00
tp2390
asg21
(lp2391
(g128
g31
I00
tp2392
asg22
(lp2393
(g897
g818
I00
tp2394
a(g2048
g1982
I00
tp2395
asg23
(lp2396
(g523
g444
I00
tp2397
a(g2217
g2151
I00
tp2398
astp2399
Rp2400
(dp2401
g27
(lp2402
g16
ag19
ag23
ag15
ag20
ag22
ag14
ag18
ag21
ag17
asbsg50
S''
p2403
sg440
(lp2404
sS'template'
p2405
g0
(g11
g12
(dp2406
S'gate_nul_produ'
p2407
g2407
sS'gate_uni_produ'
p2408
g2408
sS'set_signals_equal'
p2409
g2409
sS'gate_uni_react'
p2410
g2410
sS'gate_bim_react'
p2411
g2411
sS'gate_bim_produ'
p2412
g2412
stp2413
Rp2414
(dp2415
g27
(lp2416
g2407
ag2408
ag2412
ag2410
ag2411
ag2409
asbsS'signal_structs'
p2417
g0
(cPepperCompiler.utils
default_ordered_dict
p2418
g12
(dp2419
g21
(lp2420
Nasg22
(lp2421
NaNasg23
(lp2422
NaNasg18
(lp2423
Nasg19
(lp2424
Nasg20
(lp2425
Nastp2426
Rp2427
(dp2428
S'default'
p2429
c__builtin__
list
p2430
sS'call'
p2431
I01
sg27
(lp2432
g19
ag23
ag20
ag22
ag18
ag21
asbsg116
g0
(g11
g12
(dp2433
S'r2-am'
p2434
g1661
sS'eq1-ca'
p2435
g2011
sS'p1-cdh'
p2436
g980
sS'p0-Out'
p2437
g450
sS'p1-cdm'
p2438
g1016
sS'r0-toe-fb'
p2439
g1210
sS'p2-toe-fc'
p2440
g139
sS'p0-toe-sc'
p2441
g567
sS'eq0-a'
p2442
g2191
sS'p0-C'
p2443
g523
sS'r2-cch'
p2444
g1768
sS'p2-dh'
p2445
g205
sS'p2-C'
p2446
g128
sS'p0-bm'
p2447
g473
sS'p1-C'
p2448
g897
sS'p1-cm'
p2449
g930
sS'p1-ch'
p2450
g880
sS'eq0-A'
p2451
g2157
sS'eq0-B'
p2452
g2217
sS'p2-cdh'
p2453
g216
sS'r2-bm'
p2454
g1729
sS'p2-cdm'
p2455
g257
sS'r1-B'
p2456
g1413
sS'p2-Out'
p2457
g39
sS'p0-cdm'
p2458
g642
sS'r0-bm'
p2459
g1232
sS'p0-cdh'
p2460
g606
sS'r0-B'
p2461
g1198
sS'eq1-bh'
p2462
g2070
sS'r2-toe-sa'
p2463
g1672
sS'r2-toe-sb'
p2464
g1740
sS'p0-toe-fc'
p2465
g534
sS'p0-ch'
p2466
g506
sS'r2-toe-fb-suffix'
p2467
g1707
sS'p0-cch'
p2468
g495
sS'p0-cm'
p2469
g556
sS'r0-cch'
p2470
g1271
sS'p0-ccm'
p2471
g545
sS'p2-bm'
p2472
g75
sS'eq1-cbh'
p2473
g2059
sS'eq0-cbh'
p2474
g2228
sS'r1-ch'
p2475
g1497
sS'r2-cbm'
p2476
g1718
sS'p1-bm'
p2477
g847
sS'eq0-toe-fa'
p2478
g2169
sS'r1-toe-fb'
p2479
g1425
sS'p1-Out'
p2480
g824
sS'r2-toe-fb'
p2481
g1793
sS'r2-toe-fa'
p2482
g1639
sS'eq0-bh'
p2483
g2239
sS'p1-cbm'
p2484
g836
sS'p2-cch'
p2485
g97
sS'r1-cbm'
p2486
g1436
sS'p2-ccm'
p2487
g150
sS'r2-B'
p2488
g1685
sS'r2-A'
p2489
g1627
sS'r2-ch'
p2490
g1779
sS'p1-ccm'
p2491
g919
sS'r0-ch'
p2492
g1282
sS'eq0-toe-sa'
p2493
g2201
sS'p0-toe-sb'
p2494
g484
sS'p0-cbm'
p2495
g462
sS'r0-cbm'
p2496
g1221
sS'p0-dh'
p2497
g595
sS'p1-toe-fc'
p2498
g908
sS'r2-cam'
p2499
g1650
sS'eq0-ca'
p2500
g2180
sS'p2-cbm'
p2501
g60
sS'eq1-toe-fa'
p2502
g2000
sS'r0-Out'
p2503
g1260
sS'eq1-toe-sa'
p2504
g2032
sS'eq1-A'
p2505
g1988
sS'r2-Out'
p2506
g1757
sS'eq1-B'
p2507
g2048
sS'p1-toe-sc'
p2508
g941
sS'p1-toe-sb'
p2509
g858
sS'p1-cch'
p2510
g869
sS'p1-dh'
p2511
g969
sS'r1-cch'
p2512
g1486
sS'r1-toe-sb'
p2513
g1458
sS'r1-Out'
p2514
g1475
sS'r1-bm'
p2515
g1447
sS'eq1-a'
p2516
g2022
sS'p2-toe-sb'
p2517
g86
sS'p2-toe-sc'
p2518
g172
sS'r0-toe-sb'
p2519
g1243
sS'p2-ch'
p2520
g108
sS'p2-cm'
p2521
g161
sS'r2-toe-fb-prefix'
p2522
g1696
stp2523
Rp2524
(dp2525
g27
(lp2526
g2439
ag2519
ag2459
ag2492
ag2496
ag2470
ag2461
ag2503
ag2494
ag2465
ag2441
ag2447
ag2469
ag2466
ag2497
ag2495
ag2471
ag2468
ag2458
ag2460
ag2437
ag2443
ag2479
ag2513
ag2515
ag2475
ag2486
ag2512
ag2456
ag2514
ag2509
ag2498
ag2508
ag2477
ag2449
ag2450
ag2511
ag2484
ag2491
ag2510
ag2438
ag2436
ag2480
ag2448
ag2482
ag2463
ag2467
ag2522
ag2464
ag2481
ag2434
ag2454
ag2490
ag2499
ag2476
ag2444
ag2489
ag2488
ag2506
ag2517
ag2440
ag2518
ag2472
ag2521
ag2520
ag2445
ag2501
ag2487
ag2485
ag2455
ag2453
ag2457
ag2446
ag2478
ag2493
ag2442
ag2483
ag2500
ag2474
ag2451
ag2452
ag2502
ag2504
ag2516
ag2462
ag2435
ag2473
ag2505
ag2507
asbsS'path'
p2527
S'.'
p2528
sg52
g0
(g11
g12
(dp2529
S'r2-am'
p2530
g1661
sS'eq1-ca'
p2531
g2011
sS'p1-cdh'
p2532
g980
sS'p1-cdm'
p2533
g1016
sS'r0-toe-fb'
p2534
g1210
sS'p0-toe-sb'
p2535
g484
sS'p0-toe-sc'
p2536
g567
sS'eq0-a'
p2537
g2191
sS'r2-cch'
p2538
g1768
sS'p2-dh'
p2539
g205
sS'p0-bm'
p2540
g473
sS'p1-cm'
p2541
g930
sS'p1-ch'
p2542
g880
sS'p2-cdh'
p2543
g216
sS'r2-bm'
p2544
g1729
sS'p2-cdm'
p2545
g257
sS'p0-cdm'
p2546
g642
sS'r0-bm'
p2547
g1232
sS'p0-cdh'
p2548
g606
sS'eq1-bh'
p2549
g2070
sS'r2-toe-sa'
p2550
g1672
sS'r2-toe-sb'
p2551
g1740
sS'p0-toe-fc'
p2552
g534
sS'p0-ch'
p2553
g506
sS'r2-toe-fb-suffix'
p2554
g1707
sS'p0-cch'
p2555
g495
sS'p0-cm'
p2556
g556
sS'r0-cch'
p2557
g1271
sS'p0-ccm'
p2558
g545
sS'p2-bm'
p2559
g75
sS'eq1-cbh'
p2560
g2059
sS'eq0-cbh'
p2561
g2228
sS'r1-ch'
p2562
g1497
sS'r2-cbm'
p2563
g1718
sS'p1-bm'
p2564
g847
sS'eq0-toe-fa'
p2565
g2169
sS'r1-toe-fb'
p2566
g1425
sS'r2-toe-fa'
p2567
g1639
sS'eq0-bh'
p2568
g2239
sS'p1-cbm'
p2569
g836
sS'p2-cch'
p2570
g97
sS'r1-cbm'
p2571
g1436
sS'p2-ccm'
p2572
g150
sS'r2-ch'
p2573
g1779
sS'r0-ch'
p2574
g1282
sS'eq0-toe-sa'
p2575
g2201
sS'p2-toe-fc'
p2576
g139
sS'p0-cbm'
p2577
g462
sS'r0-cbm'
p2578
g1221
sS'p0-dh'
p2579
g595
sS'p1-toe-fc'
p2580
g908
sS'r2-cam'
p2581
g1650
sS'eq0-ca'
p2582
g2180
sS'p1-dh'
p2583
g969
sS'eq1-toe-fa'
p2584
g2000
sS'eq1-toe-sa'
p2585
g2032
sS'p1-ccm'
p2586
g919
sS'p1-toe-sc'
p2587
g941
sS'p1-toe-sb'
p2588
g858
sS'p1-cch'
p2589
g869
sS'p2-cbm'
p2590
g60
sS'r1-cch'
p2591
g1486
sS'r1-toe-sb'
p2592
g1458
sS'r1-bm'
p2593
g1447
sS'eq1-a'
p2594
g2022
sS'p2-toe-sb'
p2595
g86
sS'p2-toe-sc'
p2596
g172
sS'r0-toe-sb'
p2597
g1243
sS'p2-ch'
p2598
g108
sS'p2-cm'
p2599
g161
sS'r2-toe-fb-prefix'
p2600
g1696
stp2601
Rp2602
(dp2603
g27
(lp2604
g2534
ag2597
ag2547
ag2574
ag2578
ag2557
ag2535
ag2552
ag2536
ag2540
ag2556
ag2553
ag2579
ag2577
ag2558
ag2555
ag2546
ag2548
ag2566
ag2592
ag2593
ag2562
ag2571
ag2591
ag2588
ag2580
ag2587
ag2564
ag2541
ag2542
ag2583
ag2569
ag2586
ag2589
ag2533
ag2532
ag2567
ag2550
ag2554
ag2600
ag2551
ag2530
ag2544
ag2573
ag2581
ag2563
ag2538
ag2595
ag2576
ag2596
ag2559
ag2599
ag2598
ag2539
ag2590
ag2572
ag2570
ag2545
ag2543
ag2565
ag2575
ag2537
ag2568
ag2582
ag2561
ag2584
ag2585
ag2594
ag2549
ag2531
ag2560
asbsg228
g0
(g11
g12
(dp2605
S'p0-c'
p2606
g731
sS'p2-d'
p2607
g281
sS'p2-c'
p2608
g350
sS'p0-d'
p2609
g666
sS'r2-gate_base'
p2610
g1843
sS'p1-trans_base'
p2611
g1026
sS'p1-d'
p2612
g1040
sS'p1-c'
p2613
g1105
sS'p0-helper'
p2614
g766
sS'p2-cat_helper'
p2615
g232
sS'r0-gate_base'
p2616
g1333
sS'r1-gate_base'
p2617
g1547
sS'p0-cat_helper'
p2618
g619
sS'p2-helper'
p2619
g386
sS'r2-b'
p2620
g1822
sS'r2-a'
p2621
g1871
sS'r2-backward'
p2622
g1923
sS'p2-out'
p2623
g295
sS'p1-cat_helper'
p2624
g993
sS'p1-helper'
p2625
g1140
sS'eq0-A_strand'
p2626
g2289
sS'eq1-A_strand'
p2627
g2120
sS'p2-trans_base'
p2628
g267
sS'p0-trans_base'
p2629
g652
sS'eq0-B_strand'
p2630
g2275
sS'r0-out'
p2631
g1347
sS'p1-out'
p2632
g1053
sS'r2-out'
p2633
g1857
sS'r1-b'
p2634
g1526
sS'eq1-B_strand'
p2635
g2106
sS'r1-out'
p2636
g1561
sS'p0-out'
p2637
g679
sS'r0-b'
p2638
g1311
stp2639
Rp2640
(dp2641
g27
(lp2642
g2638
ag2616
ag2631
ag2637
ag2606
ag2609
ag2614
ag2618
ag2629
ag2634
ag2617
ag2636
ag2632
ag2613
ag2612
ag2625
ag2624
ag2611
ag2621
ag2620
ag2622
ag2610
ag2633
ag2623
ag2608
ag2607
ag2619
ag2615
ag2628
ag2626
ag2630
ag2627
ag2635
asbsg434
g0
(g11
g12
(dp2643
S'p2-Trans_waste'
p2644
g402
sS'r2-B'
p2645
g1816
sS'r2-A'
p2646
g1909
sS'r2-Backward'
p2647
g1939
sS'p0-Trans_cat_waste'
p2648
g695
sS'r1-Gate_waste'
p2649
g1577
sS'p0-Out'
p2650
g710
sS'p2-Cat_Helper'
p2651
g199
sS'p0-Cat_Helper'
p2652
g590
sS'p0-C'
p2653
g746
sS'p2-D'
p2654
g320
sS'r0-B'
p2655
g1305
sS'r2-Gate_waste'
p2656
g1887
sS'p0-D'
p2657
g703
sS'p1-D'
p2658
g1077
sS'p0-Trans_waste'
p2659
g782
sS'p1-C'
p2660
g1120
sS'p2-Trans'
p2661
g343
sS'p1-Trans'
p2662
g1098
sS'p0-Helper'
p2663
g759
sS'p2-Trans_int'
p2664
g249
sS'eq1-constraint'
p2665
g2139
sS'r0-Gate_waste'
p2666
g1363
sS'r2-Gate_int'
p2667
g1836
sS'r2-Out'
p2668
g1895
sS'p2-Helper'
p2669
g379
sS'p1-Trans_cat_waste'
p2670
g1069
sS'r0-Gate'
p2671
g1326
sS'p0-Trans_int'
p2672
g634
sS'r1-B'
p2673
g1520
sS'p2-Out'
p2674
g327
sS'p0-Trans'
p2675
g724
sS'r1-Out'
p2676
g1609
sS'p1-Helper'
p2677
g1133
sS'p2-Trans_cat_waste'
p2678
g312
sS'r0-Out'
p2679
g1395
sS'p1-Trans_waste'
p2680
g1156
sS'p2-C'
p2681
g366
sS'r1-Gate'
p2682
g1540
sS'p1-Cat_Helper'
p2683
g964
sS'r2-Gate'
p2684
g1916
sS'p1-Trans_int'
p2685
g1008
sS'eq0-constraint'
p2686
g2308
sS'p1-Out'
p2687
g1084
stp2688
Rp2689
(dp2690
g27
(lp2691
g2655
ag2679
ag2671
ag2666
ag2650
ag2653
ag2657
ag2663
ag2652
ag2675
ag2672
ag2659
ag2648
ag2673
ag2676
ag2682
ag2649
ag2687
ag2660
ag2658
ag2677
ag2683
ag2662
ag2685
ag2680
ag2670
ag2646
ag2645
ag2647
ag2668
ag2684
ag2667
ag2656
ag2674
ag2681
ag2654
ag2669
ag2651
ag2661
ag2664
ag2644
ag2678
ag2686
ag2665
asbsS'signal_dummy_structs'
p2692
g0
(g2418
g12
(dp2693
tp2694
Rp2695
(dp2696
g2429
g2430
sg2431
I01
sg27
(lp2697
sbsg442
(lp2698
sb.